 DemuxTwoOutput_sfun

 Timestamp is 671130b4 (Thu Oct 17 11:43:48 2024)

 Preferred load address is 0000000180000000

 Start         Length     Name                   Class
 0001:00000000 00011c20H .text$mn                CODE
 0001:00011c20 00000036H .text$mn$00             CODE
 0001:00011c56 00000092H .text$x                 CODE
 0002:00000000 00000490H .idata$5                DATA
 0002:00000490 00000038H .00cfg                  DATA
 0002:000004c8 00000008H .CRT$XCA                DATA
 0002:000004d0 00000008H .CRT$XCZ                DATA
 0002:000004d8 00000008H .CRT$XIA                DATA
 0002:000004e0 00000008H .CRT$XIZ                DATA
 0002:000004e8 00000008H .CRT$XPA                DATA
 0002:000004f0 00000008H .CRT$XPZ                DATA
 0002:000004f8 00000008H .CRT$XTA                DATA
 0002:00000500 00000010H .CRT$XTZ                DATA
 0002:00000508 00000000H .gehcont$y              DATA
 0002:00000508 00000000H .gfids$y                DATA
 0002:00000510 00000370H .rdata                  DATA
 0002:00000880 00000080H .rdata$CastGuardVftablesA DATA
 0002:00000900 00000080H .rdata$CastGuardVftablesC DATA
 0002:00000980 00000188H .rdata$voltmd           DATA
 0002:00000b08 00000278H .rdata$zzzdbg           DATA
 0002:00000d80 00000008H .rtc$IAA                DATA
 0002:00000d88 00000008H .rtc$IZZ                DATA
 0002:00000d90 00000008H .rtc$TAA                DATA
 0002:00000d98 00000008H .rtc$TZZ                DATA
 0002:00000da0 00000a40H .xdata                  DATA
 0002:000017e0 00000080H .edata                  DATA
 0002:00001860 00000104H .idata$2                DATA
 0002:00001964 00000014H .idata$3                DATA
 0002:00001978 00000490H .idata$4                DATA
 0002:00001e08 00000ca6H .idata$6                DATA
 0003:00000000 00004680H .data                   DATA
 0003:00004680 00000d50H .bss                    DATA
 0004:00000000 00000c60H .pdata                  DATA

  Address         Publics by Value              Rva+Base               Lib:Object

 0000:00000000       __AbsoluteZero             0000000000000000     <absolute>
 0000:00000000       ___safe_se_handler_count   0000000000000000     <absolute>
 0000:00000000       ___safe_se_handler_table   0000000000000000     <absolute>
 0000:00000000       __arm64x_extra_rfe_table   0000000000000000     <absolute>
 0000:00000000       __arm64x_extra_rfe_table_size 0000000000000000     <absolute>
 0000:00000000       __arm64x_native_entrypoint 0000000000000000     <absolute>
 0000:00000000       __arm64x_redirection_metadata 0000000000000000     <absolute>
 0000:00000000       __arm64x_redirection_metadata_count 0000000000000000     <absolute>
 0000:00000000       __dynamic_value_reloc_table 0000000000000000     <absolute>
 0000:00000000       __enclave_config           0000000000000000     <absolute>
 0000:00000000       __guard_check_icall_a64n_fptr 0000000000000000     <absolute>
 0000:00000000       __guard_eh_cont_count      0000000000000000     <absolute>
 0000:00000000       __guard_eh_cont_table      0000000000000000     <absolute>
 0000:00000000       __guard_fids_count         0000000000000000     <absolute>
 0000:00000000       __guard_fids_table         0000000000000000     <absolute>
 0000:00000000       __guard_iat_count          0000000000000000     <absolute>
 0000:00000000       __guard_iat_table          0000000000000000     <absolute>
 0000:00000000       __guard_longjmp_count      0000000000000000     <absolute>
 0000:00000000       __guard_longjmp_table      0000000000000000     <absolute>
 0000:00000000       __hybrid_auxiliary_delayload_iat 0000000000000000     <absolute>
 0000:00000000       __hybrid_auxiliary_delayload_iat_copy 0000000000000000     <absolute>
 0000:00000000       __hybrid_auxiliary_iat     0000000000000000     <absolute>
 0000:00000000       __hybrid_auxiliary_iat_copy 0000000000000000     <absolute>
 0000:00000000       __hybrid_code_map          0000000000000000     <absolute>
 0000:00000000       __hybrid_code_map_count    0000000000000000     <absolute>
 0000:00000000       __hybrid_image_info_bitfield 0000000000000000     <absolute>
 0000:00000000       __x64_code_ranges_to_entry_points 0000000000000000     <absolute>
 0000:00000000       __x64_code_ranges_to_entry_points_count 0000000000000000     <absolute>
 0000:00000100       __guard_flags              0000000000000100     <absolute>
 0000:00000000       __ImageBase                0000000180000000     <linker-defined>
 0001:00000000       DemuxTwoOutput_initializer 0000000180001000 f   DemuxTwoOutput_sfun.obj
 0001:00000010       DemuxTwoOutput_terminator  0000000180001010 f   DemuxTwoOutput_sfun.obj
 0001:00000020       load_DemuxTwoOutput_optimization_info 0000000180001020 f   DemuxTwoOutput_sfun.obj
 0001:000000d0       unload_DemuxTwoOutput_optimization_info 00000001800010d0 f   DemuxTwoOutput_sfun.obj
 0001:00000100       sf_DemuxTwoOutput_method_dispatcher 0000000180001100 f   DemuxTwoOutput_sfun.obj
 0001:00000150       sf_DemuxTwoOutput_process_check_sum_call 0000000180001150 f   DemuxTwoOutput_sfun.obj
 0001:00000650       sf_DemuxTwoOutput_get_eml_resolved_functions_info 0000000180001650 f   DemuxTwoOutput_sfun.obj
 0001:00000840       sf_DemuxTwoOutput_third_party_uses_info 0000000180001840 f   DemuxTwoOutput_sfun.obj
 0001:00000a10       sf_DemuxTwoOutput_jit_fallback_info 0000000180001a10 f   DemuxTwoOutput_sfun.obj
 0001:00000be0       sf_DemuxTwoOutput_get_post_codegen_info 0000000180001be0 f   DemuxTwoOutput_sfun.obj
 0001:00000dc0       sf_DemuxTwoOutput_updateBuildInfo_args_info 0000000180001dc0 f   DemuxTwoOutput_sfun.obj
 0001:00000fd0       sf_c2_DemuxTwoOutput_get_eml_resolved_functions_info 0000000180001fd0 f   c2_DemuxTwoOutput.obj
 0001:00001050       sf_c2_DemuxTwoOutput_get_check_sum 0000000180002050 f   c2_DemuxTwoOutput.obj
 0001:00001120       c2_DemuxTwoOutput_method_dispatcher 0000000180002120 f   c2_DemuxTwoOutput.obj
 0001:000049e0       sf_c2_DemuxTwoOutput_third_party_uses_info 00000001800059e0 f   c2_DemuxTwoOutput.obj
 0001:00004a10       sf_c2_DemuxTwoOutput_jit_fallback_info 0000000180005a10 f   c2_DemuxTwoOutput.obj
 0001:00004ba0       sf_c2_DemuxTwoOutput_updateBuildInfo_args_info 0000000180005ba0 f   c2_DemuxTwoOutput.obj
 0001:00004ed0       sf_c2_DemuxTwoOutput_get_post_codegen_info 0000000180005ed0 f   c2_DemuxTwoOutput.obj
 0001:00005470       mexFunction                0000000180006470 f   DemuxTwoOutput_sfun_registry.obj
 0001:00007db0       _ssSetInputPortDirectFeedThroughFcn 0000000180008db0 f   DemuxTwoOutput_sfun_registry.obj
 0001:00007f20       _ssSetRWorkValueFcn        0000000180008f20 f   DemuxTwoOutput_sfun_registry.obj
 0001:00007fa0       _ssGetRWorkValueFcn        0000000180008fa0 f   DemuxTwoOutput_sfun_registry.obj
 0001:00008010       _ssSetIWorkValueFcn        0000000180009010 f   DemuxTwoOutput_sfun_registry.obj
 0001:00008090       _ssGetIWorkValueFcn        0000000180009090 f   DemuxTwoOutput_sfun_registry.obj
 0001:00008100       _ssSetPWorkValueFcn        0000000180009100 f   DemuxTwoOutput_sfun_registry.obj
 0001:00008180       _ssGetPWorkValueFcn        0000000180009180 f   DemuxTwoOutput_sfun_registry.obj
 0001:000081f0       _ssGetInputPortSignalFcn   00000001800091f0 f   DemuxTwoOutput_sfun_registry.obj
 0001:00008580       _ssGetInputPortBufferDstPortFcn 0000000180009580 f   DemuxTwoOutput_sfun_registry.obj
 0001:00008600       _ssGetInputPortSignalPtrsFcn 0000000180009600 f   DemuxTwoOutput_sfun_registry.obj
 0001:00008990       ssGetParameterTuningCompliance 0000000180009990 f   DemuxTwoOutput_sfun_registry.obj
 0001:00008a00       _ssReadInputStringFcn      0000000180009a00 f   DemuxTwoOutput_sfun_registry.obj
 0001:00008a70       ssGetDTypeIdFromMxArray    0000000180009a70 f   DemuxTwoOutput_sfun_registry.obj
 0001:00008b90       ssWriteRTWMx2dMatParam     0000000180009b90 f   DemuxTwoOutput_sfun_registry.obj
 0001:00008c20       ssWriteRTWMxVectParam      0000000180009c20 f   DemuxTwoOutput_sfun_registry.obj
 0001:00008ca0       ssWriteRTWParameters       0000000180009ca0 f   DemuxTwoOutput_sfun_registry.obj
 0001:00009260       ssWriteRTWParamSettings    000000018000a260 f   DemuxTwoOutput_sfun_registry.obj
 0001:00009950       ssWriteRTWStr              000000018000a950 f   DemuxTwoOutput_sfun_registry.obj
 0001:000099b0       ssWriteRTWWorkVect         000000018000a9b0 f   DemuxTwoOutput_sfun_registry.obj
 0001:00009f10       ssWarning                  000000018000af10 f   DemuxTwoOutput_sfun_registry.obj
 0001:0000a000       ssGetRootSS                000000018000b000 f   DemuxTwoOutput_sfun_registry.obj
 0001:0000a0c0       ssGetParentSS              000000018000b0c0 f   DemuxTwoOutput_sfun_registry.obj
 0001:0000a180       ssWriteRTWNameValuePair    000000018000b180 f   DemuxTwoOutput_sfun_registry.obj
 0001:0000a680       _ssSetInputPortMatrixDimensions 000000018000b680 f   DemuxTwoOutput_sfun_registry.obj
 0001:0000a7d0       _ssSetOutputPortMatrixDimensions 000000018000b7d0 f   DemuxTwoOutput_sfun_registry.obj
 0001:0000a920       _ssSetInputPortVectorDimension 000000018000b920 f   DemuxTwoOutput_sfun_registry.obj
 0001:0000a9d0       _ssSetOutputPortVectorDimension 000000018000b9d0 f   DemuxTwoOutput_sfun_registry.obj
 0001:0000aa80       ssIsRunTimeParamTunable    000000018000ba80 f   DemuxTwoOutput_sfun_registry.obj
 0001:0000aaf0       ssGetSFuncBlockHandle      000000018000baf0 f   DemuxTwoOutput_sfun_registry.obj
 0001:0000ab60       _ssGetCallSystemNumFcnCallDestinations 000000018000bb60 f   DemuxTwoOutput_sfun_registry.obj
 0001:0000abd0       _ssGetCurrentInputPortWidth 000000018000bbd0 f   DemuxTwoOutput_sfun_registry.obj
 0001:0000ad10       _ssGetCurrentOutputPortWidth 000000018000bd10 f   DemuxTwoOutput_sfun_registry.obj
 0001:0000ae50       ssGetIsZeroCrossControlDisabled 000000018000be50 f   DemuxTwoOutput_sfun_registry.obj
 0001:0000aec0       ssSetIsInputPortUsedForContZcSignal 000000018000bec0 f   DemuxTwoOutput_sfun_registry.obj
 0001:0000af30       ssSetZcSignalIsZcElementDisc 000000018000bf30 f   DemuxTwoOutput_sfun_registry.obj
 0001:0000afe0       ssSetZcSignalName          000000018000bfe0 f   DemuxTwoOutput_sfun_registry.obj
 0001:0000b050       ssSetZcSignalWidth         000000018000c050 f   DemuxTwoOutput_sfun_registry.obj
 0001:0000b0c0       ssSetZcSignalZcEventType   000000018000c0c0 f   DemuxTwoOutput_sfun_registry.obj
 0001:0000b130       ssSetZcSignalType          000000018000c130 f   DemuxTwoOutput_sfun_registry.obj
 0001:0000b1a0       ssSetZcSignalZcTol         000000018000c1a0 f   DemuxTwoOutput_sfun_registry.obj
 0001:0000b210       ssSetZcSignalNeedsEventNotification 000000018000c210 f   DemuxTwoOutput_sfun_registry.obj
 0001:0000b280       ssCreateAndAddZcSignalInfo 000000018000c280 f   DemuxTwoOutput_sfun_registry.obj
 0001:0000b2f0       ssCloneAndAddZcSignalInfo  000000018000c2f0 f   DemuxTwoOutput_sfun_registry.obj
 0001:0000b360       ssGetNumZcSignals          000000018000c360 f   DemuxTwoOutput_sfun_registry.obj
 0001:0000b3d0       ssGetZcSignalVector        000000018000c3d0 f   DemuxTwoOutput_sfun_registry.obj
 0001:0000b440       ssGetZcSignalName          000000018000c440 f   DemuxTwoOutput_sfun_registry.obj
 0001:0000b4b0       ssGetZcSignalWidth         000000018000c4b0 f   DemuxTwoOutput_sfun_registry.obj
 0001:0000b520       ssGetZcSignalZcEventType   000000018000c520 f   DemuxTwoOutput_sfun_registry.obj
 0001:0000b590       ssGetZcSignalZcEvents      000000018000c590 f   DemuxTwoOutput_sfun_registry.obj
 0001:0000b600       ssGetZcSignalType          000000018000c600 f   DemuxTwoOutput_sfun_registry.obj
 0001:0000b670       ssGetZcSignalZcTol         000000018000c670 f   DemuxTwoOutput_sfun_registry.obj
 0001:0000b6f0       ssGetZcSignalNeedsEventNotification 000000018000c6f0 f   DemuxTwoOutput_sfun_registry.obj
 0001:0000b760       ssGetZcSignalIsZcElementDisc 000000018000c760 f   DemuxTwoOutput_sfun_registry.obj
 0001:0000b800       ssGetIsInputPortElementContinuous 000000018000c800 f   DemuxTwoOutput_sfun_registry.obj
 0001:0000b8a0       _ssGetAbsTol               000000018000c8a0 f   DemuxTwoOutput_sfun_registry.obj
 0001:0000b910       _ssSetStateAbsTol          000000018000c910 f   DemuxTwoOutput_sfun_registry.obj
 0001:0000b9f0       _ssSetInputPortReusableFcn 000000018000c9f0 f   DemuxTwoOutput_sfun_registry.obj
 0001:0000baf0       _ssSetOutputPortReusableFcn 000000018000caf0 f   DemuxTwoOutput_sfun_registry.obj
 0001:0000bbf0       _ssSetSymbolicDimsSupport  000000018000cbf0 f   DemuxTwoOutput_sfun_registry.obj
 0001:0000bc60       _ssRegisterSymbolicDimsExpr 000000018000cc60 f   DemuxTwoOutput_sfun_registry.obj
 0001:0000bce0       _ssRegisterSymbolicDimsMATLABExpr 000000018000cce0 f   DemuxTwoOutput_sfun_registry.obj
 0001:0000bd70       _ssRegisterSymbolicDims    000000018000cd70 f   DemuxTwoOutput_sfun_registry.obj
 0001:0000be10       _ssRegisterSymbolicDimsString 000000018000ce10 f   DemuxTwoOutput_sfun_registry.obj
 0001:0000be90       _ssRegisterSymbolicDimsIntValue 000000018000ce90 f   DemuxTwoOutput_sfun_registry.obj
 0001:0000bf00       _ssRegisterSymbolicEqualRelation 000000018000cf00 f   DemuxTwoOutput_sfun_registry.obj
 0001:0000bf70       _ssRegisterSymbolicEqualValue 000000018000cf70 f   DemuxTwoOutput_sfun_registry.obj
 0001:0000bfe0       _ssAmendLeadingSymbolicDims 000000018000cfe0 f   DemuxTwoOutput_sfun_registry.obj
 0001:0000c060       _ssAmendTrailingSymbolicDims 000000018000d060 f   DemuxTwoOutput_sfun_registry.obj
 0001:0000c0e0       _ssRegisterSymbolicDimsPlus 000000018000d0e0 f   DemuxTwoOutput_sfun_registry.obj
 0001:0000c160       _ssRegisterSymbolicDimsMinus 000000018000d160 f   DemuxTwoOutput_sfun_registry.obj
 0001:0000c1e0       _ssRegisterSymbolicDimsMultiply 000000018000d1e0 f   DemuxTwoOutput_sfun_registry.obj
 0001:0000c260       _ssRegisterSymbolicDimsDivide 000000018000d260 f   DemuxTwoOutput_sfun_registry.obj
 0001:0000c2e0       _ssGetNumSymbolicDims      000000018000d2e0 f   DemuxTwoOutput_sfun_registry.obj
 0001:0000c350       _ssGetSymbolicDim          000000018000d350 f   DemuxTwoOutput_sfun_registry.obj
 0001:0000c3d0       _ssSetInputPortSymbolicDimsId 000000018000d3d0 f   DemuxTwoOutput_sfun_registry.obj
 0001:0000c440       _ssGetCompInputPortSymbolicDimsId 000000018000d440 f   DemuxTwoOutput_sfun_registry.obj
 0001:0000c4b0       _ssSetCompInputPortSymbolicDimsId 000000018000d4b0 f   DemuxTwoOutput_sfun_registry.obj
 0001:0000c520       _ssSetOutputPortSymbolicDimsId 000000018000d520 f   DemuxTwoOutput_sfun_registry.obj
 0001:0000c590       _ssGetCompOutputPortSymbolicDimsId 000000018000d590 f   DemuxTwoOutput_sfun_registry.obj
 0001:0000c600       _ssSetCompOutputPortSymbolicDimsId 000000018000d600 f   DemuxTwoOutput_sfun_registry.obj
 0001:0000c670       _ssGetDWorkSymbolicDimsId  000000018000d670 f   DemuxTwoOutput_sfun_registry.obj
 0001:0000c6e0       _ssSetDWorkSymbolicDimsId  000000018000d6e0 f   DemuxTwoOutput_sfun_registry.obj
 0001:0000c750       _ssGetCompDWorkSymbolicDimsId 000000018000d750 f   DemuxTwoOutput_sfun_registry.obj
 0001:0000c7c0       _ssSetCompDWorkSymbolicDimsId 000000018000d7c0 f   DemuxTwoOutput_sfun_registry.obj
 0001:0000c830       _ssCreateSLCGStringBuffer  000000018000d830 f   DemuxTwoOutput_sfun_registry.obj
 0001:0000c8a0       _ssAddToSLCGStringBuffer   000000018000d8a0 f   DemuxTwoOutput_sfun_registry.obj
 0001:0000c910       _ssGetPointerContainedData 000000018000d910 f   DemuxTwoOutput_sfun_registry.obj
 0001:0000c9a0       _ssGetPointerContainedDataWidth 000000018000d9a0 f   DemuxTwoOutput_sfun_registry.obj
 0001:0000ca30       _ssRegisterDynamicArrayDataTypeFcn 000000018000da30 f   DemuxTwoOutput_sfun_registry.obj
 0001:0000cad0       _ssGetDynamicArrayContainedDataCurrentWidthFcn 000000018000dad0 f   DemuxTwoOutput_sfun_registry.obj
 0001:0000cba0       _ssGetDynamicArrayContainedDataFcn 000000018000dba0 f   DemuxTwoOutput_sfun_registry.obj
 0001:0000cc70       _ssGetInputPortDynamicArrayDataFcn 000000018000dc70 f   DemuxTwoOutput_sfun_registry.obj
 0001:0000cd30       _ssGetOutputPortDynamicArrayDataFcn 000000018000dd30 f   DemuxTwoOutput_sfun_registry.obj
 0001:0000cdf0       _ssGetInputPortDynamicArrayContainedDataFcn 000000018000ddf0 f   DemuxTwoOutput_sfun_registry.obj
 0001:0000ceb0       _ssGetOutputPortDynamicArrayContainedDataFcn 000000018000deb0 f   DemuxTwoOutput_sfun_registry.obj
 0001:0000cf70       _ssGetDynamicArrayDWorkContainedDataFcn 000000018000df70 f   DemuxTwoOutput_sfun_registry.obj
 0001:0000d030       sf_process_check_sum_call  000000018000e030 f   DemuxTwoOutput_sfun_registry.obj
 0001:0000d080       sf_process_get_third_party_uses_info_call 000000018000e080 f   DemuxTwoOutput_sfun_registry.obj
 0001:0000d2b0       sf_process_get_jit_fallback_info_call 000000018000e2b0 f   DemuxTwoOutput_sfun_registry.obj
 0001:0000d4e0       sf_process_get_post_codegen_info_call 000000018000e4e0 f   DemuxTwoOutput_sfun_registry.obj
 0001:0000d710       sf_process_get_updateBuildInfo_args_info_call 000000018000e710 f   DemuxTwoOutput_sfun_registry.obj
 0001:0000d940       sf_process_get_eml_resolved_functions_info_call 000000018000e940 f   DemuxTwoOutput_sfun_registry.obj
 0001:0000db70       sf_mex_unlock_call         000000018000eb70 f   DemuxTwoOutput_sfun_registry.obj
 0001:0000dd90       sf_machine_global_initializer_called 000000018000ed90 f   DemuxTwoOutput_sfun_registry.obj
 0001:0000ddc0       sf_machine_global_method_dispatcher 000000018000edc0 f   DemuxTwoOutput_sfun_registry.obj
 0001:0000de20       sf_machine_global_terminator 000000018000ee20 f   DemuxTwoOutput_sfun_registry.obj
 0001:0000de60       callCustomFcn              000000018000ee60 f   DemuxTwoOutput_sfun_registry.obj
 0001:0000de70       sf_machine_global_initializer 000000018000ee70 f   DemuxTwoOutput_sfun_registry.obj
 0001:0000dea0       mdlGetSimState             000000018000eea0 f   DemuxTwoOutput_sfun_registry.obj
 0001:0000dee0       mdlSetSimState             000000018000eee0 f   DemuxTwoOutput_sfun_registry.obj
 0001:0000e890       ProcessMexSfunctionEveryCall 000000018000f890 f   DemuxTwoOutput_sfun_registry.obj
 0001:0000fa20       __local_stdio_printf_options 0000000180010a20 f i DemuxTwoOutput_sfun_registry.obj
 0001:0000fa30       _vsnprintf_l               0000000180010a30 f i DemuxTwoOutput_sfun_registry.obj
 0001:0000fab0       _vsprintf_l                0000000180010ab0 f i DemuxTwoOutput_sfun_registry.obj
 0001:0000fb00       sprintf                    0000000180010b00 f i DemuxTwoOutput_sfun_registry.obj
 0001:0000fb50       mexfilerequiredapiversion  0000000180010b50 f   c_mexapi_version.obj
 0001:0000fb80       getBitfieldFromFloat       0000000180010b80 f   half_type.obj
 0001:0000fbb0       getFloatFromBitfield       0000000180010bb0 f   half_type.obj
 0001:0000fbe0       getBitfieldFromHalf        0000000180010be0 f   half_type.obj
 0001:0000fc00       getHalfFromBitfield        0000000180010c00 f   half_type.obj
 0001:0000fc30       halfToFloat                0000000180010c30 f   half_type.obj
 0001:0000fdb0       halfToDouble               0000000180010db0 f   half_type.obj
 0001:0000fde0       floatToHalf                0000000180010de0 f   half_type.obj
 0001:00010040       doubleToHalf               0000000180011040 f   half_type.obj
 0001:0001032b       sf_load_rtw_optimization_info 000000018001132b f   sf_runtime:sf_runtime.dll
 0001:00010331       sf_mex_decode              0000000180011331 f   sf_runtime:sf_runtime.dll
 0001:00010337       sf_init_ChartRunTimeInfo   0000000180011337 f   sf_runtime:sf_runtime.dll
 0001:0001033d       sf_free_ChartRunTimeInfo   000000018001133d f   sf_runtime:sf_runtime.dll
 0001:00010343       sf_reset_warnings_ChartRunTimeInfo 0000000180011343 f   sf_runtime:sf_runtime.dll
 0001:00010349       sfrtGetEmlrtCtx            0000000180011349 f   sf_runtime:sf_runtime.dll
 0001:0001034f       sfrtGetCovrtInstance       000000018001134f f   sf_runtime:sf_runtime.dll
 0001:00010355       sf_get_chart_instance_ptr  0000000180011355 f   sf_runtime:sf_runtime.dll
 0001:0001035b       sfSetAnimationVectors      000000018001135b f   sf_runtime:sf_runtime.dll
 0001:00010361       sim_mode_is_rtw_gen        0000000180011361 f   sf_runtime:sf_runtime.dll
 0001:00010367       sim_mode_is_external       0000000180011367 f   sf_runtime:sf_runtime.dll
 0001:0001036d       sf_clear_rtw_identifier    000000018001136d f   sf_runtime:sf_runtime.dll
 0001:00010373       sf_get_time                0000000180011373 f   sf_runtime:sf_runtime.dll
 0001:00010379       sf_set_work_widths         0000000180011379 f   sf_runtime:sf_runtime.dll
 0001:0001037f       sf_error_out_about_continuous_sample_time_with_persistent_vars 000000018001137f f   sf_runtime:sf_runtime.dll
 0001:00010385       sfHasContStates            0000000180011385 f   sf_runtime:sf_runtime.dll
 0001:0001038b       supportsLegacyBehaviorForPersistentVarInContinuousTime 000000018001138b f   sf_runtime:sf_runtime.dll
 0001:00010391       mdlProcessParamsCommon     0000000180011391 f   sf_runtime:sf_runtime.dll
 0001:00010397       sf_mex_call                0000000180011397 f   sf_runtime:sf_runtime.dll
 0001:0001039d       sf_mex_error_message       000000018001139d f   sf_runtime:sf_runtime.dll
 0001:000103a3       sf_mex_create              00000001800113a3 f   sf_runtime:sf_runtime.dll
 0001:000103a9       sf_mex_createcellmatrix    00000001800113a9 f   sf_runtime:sf_runtime.dll
 0001:000103af       sf_mex_setcell             00000001800113af f   sf_runtime:sf_runtime.dll
 0001:000103b5       sf_mex_getcell             00000001800113b5 f   sf_runtime:sf_runtime.dll
 0001:000103bb       sf_mex_assign              00000001800113bb f   sf_runtime:sf_runtime.dll
 0001:000103c1       sf_mex_dup                 00000001800113c1 f   sf_runtime:sf_runtime.dll
 0001:000103c7       sf_mex_destroy             00000001800113c7 f   sf_runtime:sf_runtime.dll
 0001:000103cd       sf_mex_import              00000001800113cd f   sf_runtime:sf_runtime.dll
 0001:000103d3       ssGetInputPortSignal_wrapper 00000001800113d3 f   sf_runtime:sf_runtime.dll
 0001:000103d9       ssGetOutputPortSignal_wrapper 00000001800113d9 f   sf_runtime:sf_runtime.dll
 0001:000103df       sf_get_ChartInfoStruct_CodeGen 00000001800113df f   sf_runtime:sf_runtime.dll
 0001:000103e5       sf_get_hasSeparateUpdateOutputs 00000001800113e5 f   sf_runtime:sf_runtime.dll
 0001:000103eb       callMdlMethodAndReportError 00000001800113eb f   sf_runtime:sf_runtime.dll
 0001:000103f1       call_sf_machine_global_method_dispatcher 00000001800113f1 f   sf_runtime:sf_runtime.dll
 0001:000103f7       getRuntimeInstanceInfoAsVoid 00000001800113f7 f   sf_runtime:sf_runtime.dll
 0001:000103fd       sf_mex_error_direct_call   00000001800113fd f   sf_runtime:sf_runtime.dll
 0001:00010403       sf_clear_error_manager_info 0000000180011403 f   sf_runtime:sf_runtime.dll
 0001:00010409       mxIsChar_800               0000000180011409 f   libmx:libmx.dll
 0001:0001040f       mxGetScalar_800            000000018001140f f   libmx:libmx.dll
 0001:00010415       mxGetPr_800                0000000180011415 f   libmx:libmx.dll
 0001:0001041b       mxDestroyArray_800         000000018001141b f   libmx:libmx.dll
 0001:00010421       mxCreateDoubleMatrix_800   0000000180011421 f   libmx:libmx.dll
 0001:00010427       mxGetString_800            0000000180011427 f   libmx:libmx.dll
 0001:0001042d       mxDuplicateArray_800       000000018001142d f   libmx:libmx.dll
 0001:00010433       mxIsEmpty_800              0000000180011433 f   libmx:libmx.dll
 0001:00010439       mxSetField_800             0000000180011439 f   libmx:libmx.dll
 0001:0001043f       mxCreateString_800         000000018001143f f   libmx:libmx.dll
 0001:00010445       mxCreateCellMatrix_800     0000000180011445 f   libmx:libmx.dll
 0001:0001044b       mxCreateStructMatrix_800   000000018001144b f   libmx:libmx.dll
 0001:00010451       mxGetNaN_800               0000000180011451 f   libmx:libmx.dll
 0001:00010457       mxCalloc_800               0000000180011457 f   libmx:libmx.dll
 0001:0001045d       mxGetM_800                 000000018001145d f   libmx:libmx.dll
 0001:00010463       mxGetClassID_800           0000000180011463 f   libmx:libmx.dll
 0001:00010469       mxIsNumeric_800            0000000180011469 f   libmx:libmx.dll
 0001:0001046f       mxIsComplex_800            000000018001146f f   libmx:libmx.dll
 0001:00010475       mxGetN_800                 0000000180011475 f   libmx:libmx.dll
 0001:0001047b       mxCreateDoubleScalar_800   000000018001147b f   libmx:libmx.dll
 0001:00010481       mexMakeArrayPersistent_800 0000000180011481 f   libmex:libmex.dll
 0001:00010487       mexErrMsgTxt_800           0000000180011487 f   libmex:libmex.dll
 0001:0001048d       mexWarnMsgTxt_800          000000018001148d f   libmex:libmex.dll
 0001:00010493       mexCallMATLAB_800          0000000180011493 f   libmex:libmex.dll
 0001:00010499       mexLock_800                0000000180011499 f   libmex:libmex.dll
 0001:0001049f       mexUnlock_800              000000018001149f f   libmex:libmex.dll
 0001:000104a5       mexIsLocked_800            00000001800114a5 f   libmex:libmex.dll
 0001:000104ab       utMalloc                   00000001800114ab f   libut:libut.dll
 0001:000104b1       utFree                     00000001800114b1 f   libut:libut.dll
 0001:000104b7       muDoubleScalarCeil         00000001800114b7 f   libmwmathutil:libmwmathutil.dll
 0001:000104bd       muDoubleScalarFloor        00000001800114bd f   libmwmathutil:libmwmathutil.dll
 0001:000104c3       muDoubleScalarRound        00000001800114c3 f   libmwmathutil:libmwmathutil.dll
 0001:000104c9       muDoubleScalarRem          00000001800114c9 f   libmwmathutil:libmwmathutil.dll
 0001:000104cf       muDoubleScalarIsNaN        00000001800114cf f   libmwmathutil:libmwmathutil.dll
 0001:000104d5       muDoubleScalarIsInf        00000001800114d5 f   libmwmathutil:libmwmathutil.dll
 0001:000104db       covrtCreateStateflowInstanceData 00000001800114db f   libcovrt:libcovrt.dll
 0001:000104e1       covrtDeleteStateflowInstanceData 00000001800114e1 f   libcovrt:libcovrt.dll
 0001:000104e7       covrtTransInitFcn          00000001800114e7 f   libcovrt:libcovrt.dll
 0001:000104ed       covrtStateInitFcn          00000001800114ed f   libcovrt:libcovrt.dll
 0001:000104f3       covrtChartInitFcn          00000001800114f3 f   libcovrt:libcovrt.dll
 0001:000104f9       covrtRelationalopUpdateFcn 00000001800114f9 f   libcovrt:libcovrt.dll
 0001:000104ff       covrtSaturationUpdateFcn   00000001800114ff f   libcovrt:libcovrt.dll
 0001:00010505       covrtSigUpdateFcn          0000000180011505 f   libcovrt:libcovrt.dll
 0001:0001050b       covrtEmlInitFcn            000000018001150b f   libcovrt:libcovrt.dll
 0001:00010511       covrtEmlFcnInitFcn         0000000180011511 f   libcovrt:libcovrt.dll
 0001:00010517       covrtEmlSaturationInitFcn  0000000180011517 f   libcovrt:libcovrt.dll
 0001:0001051d       covrtEmlIfInitFcn          000000018001151d f   libcovrt:libcovrt.dll
 0001:00010523       covrtEmlMCDCInitFcn        0000000180011523 f   libcovrt:libcovrt.dll
 0001:00010529       covrtEmlRelationalInitFcn  0000000180011529 f   libcovrt:libcovrt.dll
 0001:0001052f       covrtEmlFcnEval            000000018001152f f   libcovrt:libcovrt.dll
 0001:00010535       covrtEmlIfEval             0000000180011535 f   libcovrt:libcovrt.dll
 0001:0001053b       covrtEmlCondEval           000000018001153b f   libcovrt:libcovrt.dll
 0001:00010541       covrtEmlMcdcEval           0000000180011541 f   libcovrt:libcovrt.dll
 0001:00010548       __raise_securityfailure    0000000180011548 f   MSVCRT:gs_report.obj
 0001:0001057c       __report_gsfailure         000000018001157c f   MSVCRT:gs_report.obj
 0001:00010650       __report_rangecheckfailure 0000000180011650 f   MSVCRT:gs_report.obj
 0001:00010664       __report_securityfailure   0000000180011664 f   MSVCRT:gs_report.obj
 0001:00010704       __report_securityfailureEx 0000000180011704 f   MSVCRT:gs_report.obj
 0001:000108f8       __GSHandlerCheck           00000001800118f8 f   MSVCRT:gshandler.obj
 0001:00010918       __GSHandlerCheckCommon     0000000180011918 f   MSVCRT:gshandler.obj
 0001:00010990       __security_check_cookie    0000000180011990 f   MSVCRT:amdsecgs.obj
 0001:00010cdc       _CRT_INIT                  0000000180011cdc f   MSVCRT:dll_dllmain.obj
 0001:00010ce4       _DllMainCRTStartup         0000000180011ce4 f   MSVCRT:dll_dllmain.obj
 0001:00010d90       __security_init_cookie     0000000180011d90 f   MSVCRT:gs_support.obj
 0001:00010e3c       DllMain                    0000000180011e3c f   MSVCRT:dll_dllmain_stub.obj
 0001:00010e60       ?__scrt_initialize_type_info@@YAXXZ 0000000180011e60 f   MSVCRT:tncleanup.obj
 0001:00010e70       ?__scrt_uninitialize_type_info@@YAXXZ 0000000180011e70 f   MSVCRT:tncleanup.obj
 0001:00010e7c       __local_stdio_scanf_options 0000000180011e7c f i MSVCRT:default_local_stdio_options.obj
 0001:00010e84       __scrt_initialize_default_local_stdio_options 0000000180011e84 f   MSVCRT:default_local_stdio_options.obj
 0001:00010ea0       ?configure_argv@__scrt_narrow_argv_policy@@SAHXZ 0000000180011ea0 f i MSVCRT:utility.obj
 0001:00010f00       ?initialize_environment@__scrt_narrow_environment_policy@@SAHXZ 0000000180011f00 f i MSVCRT:utility.obj
 0001:00010f38       NtCurrentTeb               0000000180011f38 f i MSVCRT:utility.obj
 0001:00010f44       __scrt_acquire_startup_lock 0000000180011f44 f   MSVCRT:utility.obj
 0001:00010f80       __scrt_dllmain_after_initialize_c 0000000180011f80 f   MSVCRT:utility.obj
 0001:00010fb4       __scrt_dllmain_before_initialize_c 0000000180011fb4 f   MSVCRT:utility.obj
 0001:00010fcc       __scrt_dllmain_crt_thread_attach 0000000180011fcc f   MSVCRT:utility.obj
 0001:00010ff4       __scrt_dllmain_crt_thread_detach 0000000180011ff4 f   MSVCRT:utility.obj
 0001:0001100c       __scrt_dllmain_exception_filter 000000018001200c f   MSVCRT:utility.obj
 0001:0001106c       __scrt_dllmain_uninitialize_c 000000018001206c f   MSVCRT:utility.obj
 0001:0001109c       __scrt_dllmain_uninitialize_critical 000000018001209c f   MSVCRT:utility.obj
 0001:000110b0       __scrt_initialize_crt      00000001800120b0 f   MSVCRT:utility.obj
 0001:000110ec       __scrt_initialize_onexit_tables 00000001800120ec f   MSVCRT:utility.obj
 0001:00011178       __scrt_is_nonwritable_in_current_image 0000000180012178 f   MSVCRT:utility.obj
 0001:00011210       __scrt_release_startup_lock 0000000180012210 f   MSVCRT:utility.obj
 0001:00011234       __scrt_uninitialize_crt    0000000180012234 f   MSVCRT:utility.obj
 0001:00011260       _onexit                    0000000180012260 f   MSVCRT:utility.obj
 0001:0001129c       at_quick_exit              000000018001229c f   MSVCRT:utility.obj
 0001:000112bc       atexit                     00000001800122bc f   MSVCRT:utility.obj
 0001:000112d4       __scrt_get_dyn_tls_init_callback 00000001800122d4 f   MSVCRT:dyn_tls_init.obj
 0001:000112dc       __crt_debugger_hook        00000001800122dc f   MSVCRT:utility_desktop.obj
 0001:000112e4       __scrt_fastfail            00000001800122e4 f   MSVCRT:utility_desktop.obj
 0001:0001142c       __scrt_get_show_window_mode 000000018001242c f   MSVCRT:utility_desktop.obj
 0001:00011468       __scrt_initialize_mta      0000000180012468 f   MSVCRT:utility_desktop.obj
 0001:00011470       __scrt_initialize_winrt    0000000180012470 f   MSVCRT:utility_desktop.obj
 0001:00011474       __scrt_is_managed_app      0000000180012474 f   MSVCRT:utility_desktop.obj
 0001:000114c8       __scrt_set_unhandled_exception_filter 00000001800124c8 f   MSVCRT:utility_desktop.obj
 0001:000114d8       __scrt_exe_initialize_mta  00000001800124d8 f   MSVCRT:utility_desktop.obj
 0001:000114d8       __scrt_stub_for_initialize_mta 00000001800124d8 f   MSVCRT:utility_desktop.obj
 0001:000114dc       __scrt_unhandled_exception_filter 00000001800124dc f   MSVCRT:utility_desktop.obj
 0001:00011538       _RTC_Initialize            0000000180012538 f   MSVCRT:initsect.obj
 0001:00011574       _RTC_Terminate             0000000180012574 f   MSVCRT:initsect.obj
 0001:000115b0       _guard_check_icall_nop     00000001800125b0 f i MSVCRT:guard_support.obj
 0001:000115b4       ReadNoFence64              00000001800125b4 f i MSVCRT:guard_support.obj
 0001:000115b8       ReadPointerNoFence         00000001800125b8 f i MSVCRT:guard_support.obj
 0001:000115bc       __castguard_check_failure_debugbreak 00000001800125bc f i MSVCRT:guard_support.obj
 0001:000115d8       __castguard_check_failure_fastfail 00000001800125d8 f i MSVCRT:guard_support.obj
 0001:000115fc       __castguard_check_failure_nop 00000001800125fc f i MSVCRT:guard_support.obj
 0001:00011600       __castguard_check_failure_os_handled 0000000180012600 f i MSVCRT:guard_support.obj
 0001:0001164c       __castguard_check_failure_user_handled 000000018001264c f i MSVCRT:guard_support.obj
 0001:000116c0       __castguard_set_user_handler 00000001800126c0 f i MSVCRT:guard_support.obj
 0001:000116cc       __castguard_slow_path_check_debugbreak 00000001800126cc f i MSVCRT:guard_support.obj
 0001:00011700       __castguard_slow_path_check_fastfail 0000000180012700 f i MSVCRT:guard_support.obj
 0001:0001173c       __castguard_slow_path_check_nop 000000018001273c f i MSVCRT:guard_support.obj
 0001:00011740       __castguard_slow_path_check_os_handled 0000000180012740 f i MSVCRT:guard_support.obj
 0001:0001178c       __castguard_slow_path_check_user_handled 000000018001278c f i MSVCRT:guard_support.obj
 0001:000117f8       _guard_icall_checks_enforced 00000001800127f8 f i MSVCRT:guard_support.obj
 0001:00011810       _guard_rf_checks_enforced  0000000180012810 f i MSVCRT:guard_support.obj
 0001:00011814       __isa_available_init       0000000180012814 f   MSVCRT:cpu_disp.obj
 0001:00011ae0       _get_startup_argv_mode     0000000180012ae0 f   MSVCRT:argv_mode.obj
 0001:00011ae8       __scrt_is_ucrt_dll_in_use  0000000180012ae8 f   MSVCRT:ucrt_detection.obj
 0001:00011b00       RtlCaptureContext          0000000180012b00 f   kernel32:KERNEL32.dll
 0001:00011b06       RtlLookupFunctionEntry     0000000180012b06 f   kernel32:KERNEL32.dll
 0001:00011b0c       RtlVirtualUnwind           0000000180012b0c f   kernel32:KERNEL32.dll
 0001:00011b12       UnhandledExceptionFilter   0000000180012b12 f   kernel32:KERNEL32.dll
 0001:00011b18       SetUnhandledExceptionFilter 0000000180012b18 f   kernel32:KERNEL32.dll
 0001:00011b1e       GetCurrentProcess          0000000180012b1e f   kernel32:KERNEL32.dll
 0001:00011b24       TerminateProcess           0000000180012b24 f   kernel32:KERNEL32.dll
 0001:00011b2a       IsProcessorFeaturePresent  0000000180012b2a f   kernel32:KERNEL32.dll
 0001:00011b30       QueryPerformanceCounter    0000000180012b30 f   kernel32:KERNEL32.dll
 0001:00011b36       GetCurrentProcessId        0000000180012b36 f   kernel32:KERNEL32.dll
 0001:00011b3c       GetCurrentThreadId         0000000180012b3c f   kernel32:KERNEL32.dll
 0001:00011b42       GetSystemTimeAsFileTime    0000000180012b42 f   kernel32:KERNEL32.dll
 0001:00011b48       DisableThreadLibraryCalls  0000000180012b48 f   kernel32:KERNEL32.dll
 0001:00011b4e       InitializeSListHead        0000000180012b4e f   kernel32:KERNEL32.dll
 0001:00011b54       IsDebuggerPresent          0000000180012b54 f   kernel32:KERNEL32.dll
 0001:00011b5a       GetStartupInfoW            0000000180012b5a f   kernel32:KERNEL32.dll
 0001:00011b60       GetModuleHandleW           0000000180012b60 f   kernel32:KERNEL32.dll
 0001:00011b66       memset                     0000000180012b66 f   vcruntime:VCRUNTIME140.dll
 0001:00011b6c       memcpy                     0000000180012b6c f   vcruntime:VCRUNTIME140.dll
 0001:00011b72       __C_specific_handler       0000000180012b72 f   vcruntime:VCRUNTIME140.dll
 0001:00011b78       __std_type_info_destroy_list 0000000180012b78 f   vcruntime:VCRUNTIME140.dll
 0001:00011b7e       __current_exception        0000000180012b7e f   vcruntime:VCRUNTIME140.dll
 0001:00011b84       __current_exception_context 0000000180012b84 f   vcruntime:VCRUNTIME140.dll
 0001:00011b8a       strcmp                     0000000180012b8a f   ucrt:api-ms-win-crt-string-l1-1-0.dll
 0001:00011b90       strcat                     0000000180012b90 f   ucrt:api-ms-win-crt-string-l1-1-0.dll
 0001:00011b96       _localtime64               0000000180012b96 f   ucrt:api-ms-win-crt-time-l1-1-0.dll
 0001:00011b9c       _time64                    0000000180012b9c f   ucrt:api-ms-win-crt-time-l1-1-0.dll
 0001:00011ba2       __stdio_common_vsprintf    0000000180012ba2 f   ucrt:api-ms-win-crt-stdio-l1-1-0.dll
 0001:00011ba8       free                       0000000180012ba8 f   ucrt:api-ms-win-crt-heap-l1-1-0.dll
 0001:00011bae       malloc                     0000000180012bae f   ucrt:api-ms-win-crt-heap-l1-1-0.dll
 0001:00011bb4       strlen                     0000000180012bb4 f   ucrt:api-ms-win-crt-string-l1-1-0.dll
 0001:00011bba       _initterm                  0000000180012bba f   ucrt:api-ms-win-crt-runtime-l1-1-0.dll
 0001:00011bc0       _initterm_e                0000000180012bc0 f   ucrt:api-ms-win-crt-runtime-l1-1-0.dll
 0001:00011bc6       _seh_filter_dll            0000000180012bc6 f   ucrt:api-ms-win-crt-runtime-l1-1-0.dll
 0001:00011bcc       _configure_narrow_argv     0000000180012bcc f   ucrt:api-ms-win-crt-runtime-l1-1-0.dll
 0001:00011bd2       _initialize_narrow_environment 0000000180012bd2 f   ucrt:api-ms-win-crt-runtime-l1-1-0.dll
 0001:00011bd8       _initialize_onexit_table   0000000180012bd8 f   ucrt:api-ms-win-crt-runtime-l1-1-0.dll
 0001:00011bde       _register_onexit_function  0000000180012bde f   ucrt:api-ms-win-crt-runtime-l1-1-0.dll
 0001:00011be4       _execute_onexit_table      0000000180012be4 f   ucrt:api-ms-win-crt-runtime-l1-1-0.dll
 0001:00011bea       _crt_atexit                0000000180012bea f   ucrt:api-ms-win-crt-runtime-l1-1-0.dll
 0001:00011bf0       _crt_at_quick_exit         0000000180012bf0 f   ucrt:api-ms-win-crt-runtime-l1-1-0.dll
 0001:00011bf6       _cexit                     0000000180012bf6 f   ucrt:api-ms-win-crt-runtime-l1-1-0.dll
 0001:00011bfc       terminate                  0000000180012bfc f   ucrt:api-ms-win-crt-runtime-l1-1-0.dll
 0001:00011c04       __acrt_initialize          0000000180012c04 f   MSVCRT:ucrt_stubs.obj
 0001:00011c04       __scrt_stub_for_acrt_initialize 0000000180012c04 f   MSVCRT:ucrt_stubs.obj
 0001:00011c04       __vcrt_initialize          0000000180012c04 f   MSVCRT:ucrt_stubs.obj
 0001:00011c08       __acrt_thread_attach       0000000180012c08 f   MSVCRT:ucrt_stubs.obj
 0001:00011c08       __scrt_stub_for_acrt_thread_attach 0000000180012c08 f   MSVCRT:ucrt_stubs.obj
 0001:00011c08       __vcrt_thread_attach       0000000180012c08 f   MSVCRT:ucrt_stubs.obj
 0001:00011c0c       __acrt_thread_detach       0000000180012c0c f   MSVCRT:ucrt_stubs.obj
 0001:00011c0c       __scrt_stub_for_acrt_thread_detach 0000000180012c0c f   MSVCRT:ucrt_stubs.obj
 0001:00011c0c       __vcrt_thread_detach       0000000180012c0c f   MSVCRT:ucrt_stubs.obj
 0001:00011c10       __acrt_uninitialize        0000000180012c10 f   MSVCRT:ucrt_stubs.obj
 0001:00011c10       __scrt_stub_for_acrt_uninitialize 0000000180012c10 f   MSVCRT:ucrt_stubs.obj
 0001:00011c10       __vcrt_uninitialize        0000000180012c10 f   MSVCRT:ucrt_stubs.obj
 0001:00011c14       __acrt_uninitialize_critical 0000000180012c14 f   MSVCRT:ucrt_stubs.obj
 0001:00011c14       __scrt_stub_for_acrt_uninitialize_critical 0000000180012c14 f   MSVCRT:ucrt_stubs.obj
 0001:00011c14       __vcrt_uninitialize_critical 0000000180012c14 f   MSVCRT:ucrt_stubs.obj
 0001:00011c18       __scrt_stub_for_is_c_termination_complete 0000000180012c18 f   MSVCRT:ucrt_stubs.obj
 0001:00011c18       _is_c_termination_complete 0000000180012c18 f   MSVCRT:ucrt_stubs.obj
 0001:00011c30       _guard_dispatch_icall_nop  0000000180012c30 f   MSVCRT:guard_dispatch.obj
 0001:00011c50       _guard_xfg_dispatch_icall_nop 0000000180012c50 f   MSVCRT:guard_xfg_dispatch.obj
 0002:00000000       __imp_QueryPerformanceCounter 0000000180013000     kernel32:KERNEL32.dll
 0002:00000008       __imp_GetCurrentThreadId   0000000180013008     kernel32:KERNEL32.dll
 0002:00000010       __imp_RtlCaptureContext    0000000180013010     kernel32:KERNEL32.dll
 0002:00000018       __imp_RtlLookupFunctionEntry 0000000180013018     kernel32:KERNEL32.dll
 0002:00000020       __imp_RtlVirtualUnwind     0000000180013020     kernel32:KERNEL32.dll
 0002:00000028       __imp_GetSystemTimeAsFileTime 0000000180013028     kernel32:KERNEL32.dll
 0002:00000030       __imp_DisableThreadLibraryCalls 0000000180013030     kernel32:KERNEL32.dll
 0002:00000038       __imp_InitializeSListHead  0000000180013038     kernel32:KERNEL32.dll
 0002:00000040       __imp_IsDebuggerPresent    0000000180013040     kernel32:KERNEL32.dll
 0002:00000048       __imp_GetStartupInfoW      0000000180013048     kernel32:KERNEL32.dll
 0002:00000050       __imp_GetModuleHandleW     0000000180013050     kernel32:KERNEL32.dll
 0002:00000058       __imp_IsProcessorFeaturePresent 0000000180013058     kernel32:KERNEL32.dll
 0002:00000060       __imp_TerminateProcess     0000000180013060     kernel32:KERNEL32.dll
 0002:00000068       __imp_GetCurrentProcess    0000000180013068     kernel32:KERNEL32.dll
 0002:00000070       __imp_SetUnhandledExceptionFilter 0000000180013070     kernel32:KERNEL32.dll
 0002:00000078       __imp_UnhandledExceptionFilter 0000000180013078     kernel32:KERNEL32.dll
 0002:00000080       __imp_GetCurrentProcessId  0000000180013080     kernel32:KERNEL32.dll
 0002:00000088       \177KERNEL32_NULL_THUNK_DATA 0000000180013088     kernel32:KERNEL32.dll
 0002:00000090       __imp_memset               0000000180013090     vcruntime:VCRUNTIME140.dll
 0002:00000098       __imp_memcpy               0000000180013098     vcruntime:VCRUNTIME140.dll
 0002:000000a0       __imp___C_specific_handler 00000001800130a0     vcruntime:VCRUNTIME140.dll
 0002:000000a8       __imp___std_type_info_destroy_list 00000001800130a8     vcruntime:VCRUNTIME140.dll
 0002:000000b0       __imp___current_exception  00000001800130b0     vcruntime:VCRUNTIME140.dll
 0002:000000b8       __imp___current_exception_context 00000001800130b8     vcruntime:VCRUNTIME140.dll
 0002:000000c0       \177VCRUNTIME140_NULL_THUNK_DATA 00000001800130c0     vcruntime:VCRUNTIME140.dll
 0002:000000c8       __imp_malloc               00000001800130c8     ucrt:api-ms-win-crt-heap-l1-1-0.dll
 0002:000000d0       __imp_free                 00000001800130d0     ucrt:api-ms-win-crt-heap-l1-1-0.dll
 0002:000000d8       \177api-ms-win-crt-heap-l1-1-0_NULL_THUNK_DATA 00000001800130d8     ucrt:api-ms-win-crt-heap-l1-1-0.dll
 0002:000000e0       __imp__seh_filter_dll      00000001800130e0     ucrt:api-ms-win-crt-runtime-l1-1-0.dll
 0002:000000e8       __imp__configure_narrow_argv 00000001800130e8     ucrt:api-ms-win-crt-runtime-l1-1-0.dll
 0002:000000f0       __imp__initialize_narrow_environment 00000001800130f0     ucrt:api-ms-win-crt-runtime-l1-1-0.dll
 0002:000000f8       __imp__initialize_onexit_table 00000001800130f8     ucrt:api-ms-win-crt-runtime-l1-1-0.dll
 0002:00000100       __imp__initterm            0000000180013100     ucrt:api-ms-win-crt-runtime-l1-1-0.dll
 0002:00000108       __imp__register_onexit_function 0000000180013108     ucrt:api-ms-win-crt-runtime-l1-1-0.dll
 0002:00000110       __imp__execute_onexit_table 0000000180013110     ucrt:api-ms-win-crt-runtime-l1-1-0.dll
 0002:00000118       __imp__crt_atexit          0000000180013118     ucrt:api-ms-win-crt-runtime-l1-1-0.dll
 0002:00000120       __imp__crt_at_quick_exit   0000000180013120     ucrt:api-ms-win-crt-runtime-l1-1-0.dll
 0002:00000128       __imp__cexit               0000000180013128     ucrt:api-ms-win-crt-runtime-l1-1-0.dll
 0002:00000130       __imp_terminate            0000000180013130     ucrt:api-ms-win-crt-runtime-l1-1-0.dll
 0002:00000138       __imp__initterm_e          0000000180013138     ucrt:api-ms-win-crt-runtime-l1-1-0.dll
 0002:00000140       \177api-ms-win-crt-runtime-l1-1-0_NULL_THUNK_DATA 0000000180013140     ucrt:api-ms-win-crt-runtime-l1-1-0.dll
 0002:00000148       __imp___stdio_common_vsprintf 0000000180013148     ucrt:api-ms-win-crt-stdio-l1-1-0.dll
 0002:00000150       \177api-ms-win-crt-stdio-l1-1-0_NULL_THUNK_DATA 0000000180013150     ucrt:api-ms-win-crt-stdio-l1-1-0.dll
 0002:00000158       __imp_strlen               0000000180013158     ucrt:api-ms-win-crt-string-l1-1-0.dll
 0002:00000160       __imp_strcat               0000000180013160     ucrt:api-ms-win-crt-string-l1-1-0.dll
 0002:00000168       __imp_strcmp               0000000180013168     ucrt:api-ms-win-crt-string-l1-1-0.dll
 0002:00000170       \177api-ms-win-crt-string-l1-1-0_NULL_THUNK_DATA 0000000180013170     ucrt:api-ms-win-crt-string-l1-1-0.dll
 0002:00000178       __imp__time64              0000000180013178     ucrt:api-ms-win-crt-time-l1-1-0.dll
 0002:00000180       __imp__localtime64         0000000180013180     ucrt:api-ms-win-crt-time-l1-1-0.dll
 0002:00000188       \177api-ms-win-crt-time-l1-1-0_NULL_THUNK_DATA 0000000180013188     ucrt:api-ms-win-crt-time-l1-1-0.dll
 0002:00000190       __imp_covrtChartInitFcn    0000000180013190     libcovrt:libcovrt.dll
 0002:00000198       __imp_covrtEmlMcdcEval     0000000180013198     libcovrt:libcovrt.dll
 0002:000001a0       __imp_covrtEmlCondEval     00000001800131a0     libcovrt:libcovrt.dll
 0002:000001a8       __imp_covrtEmlIfEval       00000001800131a8     libcovrt:libcovrt.dll
 0002:000001b0       __imp_covrtEmlFcnEval      00000001800131b0     libcovrt:libcovrt.dll
 0002:000001b8       __imp_covrtEmlRelationalInitFcn 00000001800131b8     libcovrt:libcovrt.dll
 0002:000001c0       __imp_covrtEmlMCDCInitFcn  00000001800131c0     libcovrt:libcovrt.dll
 0002:000001c8       __imp_covrtEmlIfInitFcn    00000001800131c8     libcovrt:libcovrt.dll
 0002:000001d0       __imp_covrtEmlSaturationInitFcn 00000001800131d0     libcovrt:libcovrt.dll
 0002:000001d8       __imp_covrtStateInitFcn    00000001800131d8     libcovrt:libcovrt.dll
 0002:000001e0       __imp_covrtTransInitFcn    00000001800131e0     libcovrt:libcovrt.dll
 0002:000001e8       __imp_covrtDeleteStateflowInstanceData 00000001800131e8     libcovrt:libcovrt.dll
 0002:000001f0       __imp_covrtRelationalopUpdateFcn 00000001800131f0     libcovrt:libcovrt.dll
 0002:000001f8       __imp_covrtCreateStateflowInstanceData 00000001800131f8     libcovrt:libcovrt.dll
 0002:00000200       __imp_covrtSaturationUpdateFcn 0000000180013200     libcovrt:libcovrt.dll
 0002:00000208       __imp_covrtSigUpdateFcn    0000000180013208     libcovrt:libcovrt.dll
 0002:00000210       __imp_covrtEmlInitFcn      0000000180013210     libcovrt:libcovrt.dll
 0002:00000218       __imp_covrtEmlFcnInitFcn   0000000180013218     libcovrt:libcovrt.dll
 0002:00000220       \177libcovrt_NULL_THUNK_DATA 0000000180013220     libcovrt:libcovrt.dll
 0002:00000228       __imp_mexIsLocked_800      0000000180013228     libmex:libmex.dll
 0002:00000230       __imp_mexCallMATLAB_800    0000000180013230     libmex:libmex.dll
 0002:00000238       __imp_mexMakeArrayPersistent_800 0000000180013238     libmex:libmex.dll
 0002:00000240       __imp_mexErrMsgTxt_800     0000000180013240     libmex:libmex.dll
 0002:00000248       __imp_mexWarnMsgTxt_800    0000000180013248     libmex:libmex.dll
 0002:00000250       __imp_mexLock_800          0000000180013250     libmex:libmex.dll
 0002:00000258       __imp_mexUnlock_800        0000000180013258     libmex:libmex.dll
 0002:00000260       \177libmex_NULL_THUNK_DATA 0000000180013260     libmex:libmex.dll
 0002:00000268       __imp_muDoubleScalarRem    0000000180013268     libmwmathutil:libmwmathutil.dll
 0002:00000270       __imp_muDoubleScalarRound  0000000180013270     libmwmathutil:libmwmathutil.dll
 0002:00000278       __imp_muDoubleScalarFloor  0000000180013278     libmwmathutil:libmwmathutil.dll
 0002:00000280       __imp_muDoubleScalarCeil   0000000180013280     libmwmathutil:libmwmathutil.dll
 0002:00000288       __imp_muDoubleScalarIsInf  0000000180013288     libmwmathutil:libmwmathutil.dll
 0002:00000290       __imp_muDoubleScalarIsNaN  0000000180013290     libmwmathutil:libmwmathutil.dll
 0002:00000298       \177libmwmathutil_NULL_THUNK_DATA 0000000180013298     libmwmathutil:libmwmathutil.dll
 0002:000002a0       __imp_mxGetScalar_800      00000001800132a0     libmx:libmx.dll
 0002:000002a8       __imp_mxGetPr_800          00000001800132a8     libmx:libmx.dll
 0002:000002b0       __imp_mxDestroyArray_800   00000001800132b0     libmx:libmx.dll
 0002:000002b8       __imp_mxCreateDoubleMatrix_800 00000001800132b8     libmx:libmx.dll
 0002:000002c0       __imp_mxCreateDoubleScalar_800 00000001800132c0     libmx:libmx.dll
 0002:000002c8       __imp_mxGetN_800           00000001800132c8     libmx:libmx.dll
 0002:000002d0       __imp_mxIsComplex_800      00000001800132d0     libmx:libmx.dll
 0002:000002d8       __imp_mxIsNumeric_800      00000001800132d8     libmx:libmx.dll
 0002:000002e0       __imp_mxGetClassID_800     00000001800132e0     libmx:libmx.dll
 0002:000002e8       __imp_mxGetM_800           00000001800132e8     libmx:libmx.dll
 0002:000002f0       __imp_mxCalloc_800         00000001800132f0     libmx:libmx.dll
 0002:000002f8       __imp_mxGetNaN_800         00000001800132f8     libmx:libmx.dll
 0002:00000300       __imp_mxCreateStructMatrix_800 0000000180013300     libmx:libmx.dll
 0002:00000308       __imp_mxCreateCellMatrix_800 0000000180013308     libmx:libmx.dll
 0002:00000310       __imp_mxCreateString_800   0000000180013310     libmx:libmx.dll
 0002:00000318       __imp_mxSetField_800       0000000180013318     libmx:libmx.dll
 0002:00000320       __imp_mxIsEmpty_800        0000000180013320     libmx:libmx.dll
 0002:00000328       __imp_mxDuplicateArray_800 0000000180013328     libmx:libmx.dll
 0002:00000330       __imp_mxGetString_800      0000000180013330     libmx:libmx.dll
 0002:00000338       __imp_mxIsChar_800         0000000180013338     libmx:libmx.dll
 0002:00000340       \177libmx_NULL_THUNK_DATA  0000000180013340     libmx:libmx.dll
 0002:00000348       __imp_utFree               0000000180013348     libut:libut.dll
 0002:00000350       __imp_utMalloc             0000000180013350     libut:libut.dll
 0002:00000358       \177libut_NULL_THUNK_DATA  0000000180013358     libut:libut.dll
 0002:00000360       __imp_sf_mex_decode        0000000180013360     sf_runtime:sf_runtime.dll
 0002:00000368       __imp_sf_clear_error_manager_info 0000000180013368     sf_runtime:sf_runtime.dll
 0002:00000370       __imp_sf_mex_error_direct_call 0000000180013370     sf_runtime:sf_runtime.dll
 0002:00000378       __imp_getRuntimeInstanceInfoAsVoid 0000000180013378     sf_runtime:sf_runtime.dll
 0002:00000380       __imp_call_sf_machine_global_method_dispatcher 0000000180013380     sf_runtime:sf_runtime.dll
 0002:00000388       __imp_callMdlMethodAndReportError 0000000180013388     sf_runtime:sf_runtime.dll
 0002:00000390       __imp_sf_get_hasSeparateUpdateOutputs 0000000180013390     sf_runtime:sf_runtime.dll
 0002:00000398       __imp_sf_get_ChartInfoStruct_CodeGen 0000000180013398     sf_runtime:sf_runtime.dll
 0002:000003a0       __imp_ssGetOutputPortSignal_wrapper 00000001800133a0     sf_runtime:sf_runtime.dll
 0002:000003a8       __imp_ssGetInputPortSignal_wrapper 00000001800133a8     sf_runtime:sf_runtime.dll
 0002:000003b0       __imp_sf_mex_import        00000001800133b0     sf_runtime:sf_runtime.dll
 0002:000003b8       __imp_sf_mex_destroy       00000001800133b8     sf_runtime:sf_runtime.dll
 0002:000003c0       __imp_sf_mex_dup           00000001800133c0     sf_runtime:sf_runtime.dll
 0002:000003c8       __imp_sf_mex_assign        00000001800133c8     sf_runtime:sf_runtime.dll
 0002:000003d0       __imp_sf_mex_getcell       00000001800133d0     sf_runtime:sf_runtime.dll
 0002:000003d8       __imp_sf_mex_setcell       00000001800133d8     sf_runtime:sf_runtime.dll
 0002:000003e0       __imp_sf_mex_createcellmatrix 00000001800133e0     sf_runtime:sf_runtime.dll
 0002:000003e8       __imp_sf_mex_create        00000001800133e8     sf_runtime:sf_runtime.dll
 0002:000003f0       __imp_sf_mex_error_message 00000001800133f0     sf_runtime:sf_runtime.dll
 0002:000003f8       __imp_sf_mex_call          00000001800133f8     sf_runtime:sf_runtime.dll
 0002:00000400       __imp_mdlProcessParamsCommon 0000000180013400     sf_runtime:sf_runtime.dll
 0002:00000408       __imp_supportsLegacyBehaviorForPersistentVarInContinuousTime 0000000180013408     sf_runtime:sf_runtime.dll
 0002:00000410       __imp_sfHasContStates      0000000180013410     sf_runtime:sf_runtime.dll
 0002:00000418       __imp_sf_error_out_about_continuous_sample_time_with_persistent_vars 0000000180013418     sf_runtime:sf_runtime.dll
 0002:00000420       __imp_sf_set_work_widths   0000000180013420     sf_runtime:sf_runtime.dll
 0002:00000428       __imp_sf_get_time          0000000180013428     sf_runtime:sf_runtime.dll
 0002:00000430       __imp_sf_clear_rtw_identifier 0000000180013430     sf_runtime:sf_runtime.dll
 0002:00000438       __imp_sim_mode_is_external 0000000180013438     sf_runtime:sf_runtime.dll
 0002:00000440       __imp_sim_mode_is_rtw_gen  0000000180013440     sf_runtime:sf_runtime.dll
 0002:00000448       __imp_sfSetAnimationVectors 0000000180013448     sf_runtime:sf_runtime.dll
 0002:00000450       __imp_sf_get_chart_instance_ptr 0000000180013450     sf_runtime:sf_runtime.dll
 0002:00000458       __imp_sfrtGetCovrtInstance 0000000180013458     sf_runtime:sf_runtime.dll
 0002:00000460       __imp_sfrtGetEmlrtCtx      0000000180013460     sf_runtime:sf_runtime.dll
 0002:00000468       __imp_sf_reset_warnings_ChartRunTimeInfo 0000000180013468     sf_runtime:sf_runtime.dll
 0002:00000470       __imp_sf_free_ChartRunTimeInfo 0000000180013470     sf_runtime:sf_runtime.dll
 0002:00000478       __imp_sf_init_ChartRunTimeInfo 0000000180013478     sf_runtime:sf_runtime.dll
 0002:00000480       __imp_sf_load_rtw_optimization_info 0000000180013480     sf_runtime:sf_runtime.dll
 0002:00000488       \177sf_runtime_NULL_THUNK_DATA 0000000180013488     sf_runtime:sf_runtime.dll
 0002:00000490       __guard_check_icall_fptr   0000000180013490     MSVCRT:guard_support.obj
 0002:00000498       __guard_xfg_check_icall_fptr 0000000180013498     MSVCRT:guard_support.obj
 0002:000004a0       __guard_dispatch_icall_fptr 00000001800134a0     MSVCRT:guard_support.obj
 0002:000004a8       __guard_xfg_dispatch_icall_fptr 00000001800134a8     MSVCRT:guard_support.obj
 0002:000004b0       __guard_xfg_table_dispatch_icall_fptr 00000001800134b0     MSVCRT:guard_support.obj
 0002:000004b8       __castguard_check_failure_os_handled_fptr 00000001800134b8     MSVCRT:guard_support.obj
 0002:000004c0       __guard_memcpy_fptr        00000001800134c0     vcruntime:softmemtag.obj
 0002:000004c8       __xc_a                     00000001800134c8     MSVCRT:initializers.obj
 0002:000004d0       __xc_z                     00000001800134d0     MSVCRT:initializers.obj
 0002:000004d8       __xi_a                     00000001800134d8     MSVCRT:initializers.obj
 0002:000004e0       __xi_z                     00000001800134e0     MSVCRT:initializers.obj
 0002:000004e8       __xp_a                     00000001800134e8     MSVCRT:initializers.obj
 0002:000004f0       __xp_z                     00000001800134f0     MSVCRT:initializers.obj
 0002:000004f8       __xt_a                     00000001800134f8     MSVCRT:initializers.obj
 0002:00000500       __xt_z                     0000000180013500     MSVCRT:initializers.obj
 0002:00000510       __real@41a935fb7a000000    0000000180013510     DemuxTwoOutput_sfun.obj
 0002:00000518       __real@41b82a9620000000    0000000180013518     DemuxTwoOutput_sfun.obj
 0002:00000520       __real@41c25c6bf7000000    0000000180013520     DemuxTwoOutput_sfun.obj
 0002:00000528       __real@41c36c74cc800000    0000000180013528     DemuxTwoOutput_sfun.obj
 0002:00000530       __real@41c57c6f2a000000    0000000180013530     DemuxTwoOutput_sfun.obj
 0002:00000538       __real@41d6fe0789400000    0000000180013538     DemuxTwoOutput_sfun.obj
 0002:00000540       __real@41e1227f3c200000    0000000180013540     DemuxTwoOutput_sfun.obj
 0002:00000548       __real@41e3a9fcdd400000    0000000180013548     DemuxTwoOutput_sfun.obj
 0002:00000550       __real@41e51622a2a00000    0000000180013550     DemuxTwoOutput_sfun.obj
 0002:00000558       __real@41e5238045a00000    0000000180013558     DemuxTwoOutput_sfun.obj
 0002:00000560       __real@41e937918c200000    0000000180013560     DemuxTwoOutput_sfun.obj
 0002:00000568       __real@41ea4f9434a00000    0000000180013568     DemuxTwoOutput_sfun.obj
 0002:00000598       __real@0000000000000000    0000000180013598     c2_DemuxTwoOutput.obj
 0002:000005a0       __real@3ca0000000000000    00000001800135a0     c2_DemuxTwoOutput.obj
 0002:000005a8       __real@3defffffffffffff    00000001800135a8     c2_DemuxTwoOutput.obj
 0002:000005b0       __real@3e00000000200000    00000001800135b0     c2_DemuxTwoOutput.obj
 0002:000005b8       __real@3ff0000000000000    00000001800135b8     c2_DemuxTwoOutput.obj
 0002:000005c0       __real@4000000000000000    00000001800135c0     c2_DemuxTwoOutput.obj
 0002:000005c8       __real@4010000000000000    00000001800135c8     c2_DemuxTwoOutput.obj
 0002:000005d0       __real@403f000000000000    00000001800135d0     c2_DemuxTwoOutput.obj
 0002:000005d8       __real@404d800000000000    00000001800135d8     c2_DemuxTwoOutput.obj
 0002:000005e0       __real@404e000000000000    00000001800135e0     c2_DemuxTwoOutput.obj
 0002:000005e8       __real@4056800000000000    00000001800135e8     c2_DemuxTwoOutput.obj
 0002:000005f0       __real@4059000000000000    00000001800135f0     c2_DemuxTwoOutput.obj
 0002:000005f8       __real@405e000000000000    00000001800135f8     c2_DemuxTwoOutput.obj
 0002:00000600       __real@4062e00000000000    0000000180013600     c2_DemuxTwoOutput.obj
 0002:00000608       __real@4066a00000000000    0000000180013608     c2_DemuxTwoOutput.obj
 0002:00000610       __real@406a800000000000    0000000180013610     c2_DemuxTwoOutput.obj
 0002:00000618       __real@406c800000000000    0000000180013618     c2_DemuxTwoOutput.obj
 0002:00000620       __real@406e600000000000    0000000180013620     c2_DemuxTwoOutput.obj
 0002:00000628       __real@4071100000000000    0000000180013628     c2_DemuxTwoOutput.obj
 0002:00000630       __real@4073000000000000    0000000180013630     c2_DemuxTwoOutput.obj
 0002:00000638       __real@4074e00000000000    0000000180013638     c2_DemuxTwoOutput.obj
 0002:00000640       __real@4076d00000000000    0000000180013640     c2_DemuxTwoOutput.obj
 0002:00000648       __real@4078d00000000000    0000000180013648     c2_DemuxTwoOutput.obj
 0002:00000650       __real@4079000000000000    0000000180013650     c2_DemuxTwoOutput.obj
 0002:00000658       __real@40ac200000000000    0000000180013658     c2_DemuxTwoOutput.obj
 0002:00000660       __real@40f5180000000000    0000000180013660     c2_DemuxTwoOutput.obj
 0002:00000668       __real@41607ac000000000    0000000180013668     c2_DemuxTwoOutput.obj
 0002:00000670       __real@4190000000000000    0000000180013670     c2_DemuxTwoOutput.obj
 0002:00000678       __real@41d5693b5c000000    0000000180013678     c2_DemuxTwoOutput.obj
 0002:00000680       __real@41dfffffffc00000    0000000180013680     c2_DemuxTwoOutput.obj
 0002:00000688       __real@41e00b932e400000    0000000180013688     c2_DemuxTwoOutput.obj
 0002:00000690       __real@41e2da0191400000    0000000180013690     c2_DemuxTwoOutput.obj
 0002:00000698       __real@41e9f3a873200000    0000000180013698     c2_DemuxTwoOutput.obj
 0002:000006a0       __real@41f0000000000000    00000001800136a0     c2_DemuxTwoOutput.obj
 0002:000006a8       __real@bff0000000000000    00000001800136a8     c2_DemuxTwoOutput.obj
 0002:000006b0       DYNAMIC_DIMENSION_DEF      00000001800136b0     DemuxTwoOutput_sfun_registry.obj
 0002:000006c8       __real@41602cbca0000000    00000001800136c8     DemuxTwoOutput_sfun_registry.obj
 0002:000006e0       _pDefaultRawDllMain        00000001800136e0     MSVCRT:dll_dllmain.obj
 0002:000006e0       _pRawDllMain               00000001800136e0     MSVCRT:dll_dllmain.obj
 0002:000006f0       __xmm@ffffffffffffffffffffffffffffffff 00000001800136f0     MSVCRT:utility.obj
 0002:00000700       _load_config_used          0000000180013700     MSVCRT:loadcfg.obj
 0002:00000880       __CastGuardVftablesStart   0000000180013880     MSVCRT:guard_support.obj
 0002:00000900       __CastGuardVftablesEnd     0000000180013900     MSVCRT:guard_support.obj
 0002:00000980       __volatile_metadata        0000000180013980     <linker-defined>
 0002:00000d80       __rtc_iaa                  0000000180013d80     MSVCRT:initsect.obj
 0002:00000d88       __rtc_izz                  0000000180013d88     MSVCRT:initsect.obj
 0002:00000d90       __rtc_taa                  0000000180013d90     MSVCRT:initsect.obj
 0002:00000d98       __rtc_tzz                  0000000180013d98     MSVCRT:initsect.obj
 0002:00001860       __IMPORT_DESCRIPTOR_sf_runtime 0000000180014860     sf_runtime:sf_runtime.dll
 0002:00001874       __IMPORT_DESCRIPTOR_libmx  0000000180014874     libmx:libmx.dll
 0002:00001888       __IMPORT_DESCRIPTOR_libmex 0000000180014888     libmex:libmex.dll
 0002:0000189c       __IMPORT_DESCRIPTOR_libut  000000018001489c     libut:libut.dll
 0002:000018b0       __IMPORT_DESCRIPTOR_libmwmathutil 00000001800148b0     libmwmathutil:libmwmathutil.dll
 0002:000018c4       __IMPORT_DESCRIPTOR_libcovrt 00000001800148c4     libcovrt:libcovrt.dll
 0002:000018d8       __IMPORT_DESCRIPTOR_KERNEL32 00000001800148d8     kernel32:KERNEL32.dll
 0002:000018ec       __IMPORT_DESCRIPTOR_VCRUNTIME140 00000001800148ec     vcruntime:VCRUNTIME140.dll
 0002:00001900       __IMPORT_DESCRIPTOR_api-ms-win-crt-string-l1-1-0 0000000180014900     ucrt:api-ms-win-crt-string-l1-1-0.dll
 0002:00001914       __IMPORT_DESCRIPTOR_api-ms-win-crt-time-l1-1-0 0000000180014914     ucrt:api-ms-win-crt-time-l1-1-0.dll
 0002:00001928       __IMPORT_DESCRIPTOR_api-ms-win-crt-stdio-l1-1-0 0000000180014928     ucrt:api-ms-win-crt-stdio-l1-1-0.dll
 0002:0000193c       __IMPORT_DESCRIPTOR_api-ms-win-crt-heap-l1-1-0 000000018001493c     ucrt:api-ms-win-crt-heap-l1-1-0.dll
 0002:00001950       __IMPORT_DESCRIPTOR_api-ms-win-crt-runtime-l1-1-0 0000000180014950     ucrt:api-ms-win-crt-runtime-l1-1-0.dll
 0002:00001964       __NULL_IMPORT_DESCRIPTOR   0000000180014964     sf_runtime:sf_runtime.dll
 0003:00001f50       DYNAMIC_DIMENSION          0000000180017f50     DemuxTwoOutput_sfun_registry.obj
 0003:00004600       __security_cookie          000000018001a600     MSVCRT:gs_cookie.obj
 0003:00004640       __security_cookie_complement 000000018001a640     MSVCRT:gs_cookie.obj
 0003:00004648       _fltused                   000000018001a648     MSVCRT:fltused.obj
 0003:0000464c       __scrt_native_dllmain_reason 000000018001a64c     MSVCRT:utility.obj
 0003:00004650       __isa_inverted             000000018001a650     MSVCRT:cpu_disp.obj
 0003:00004658       __isa_available            000000018001a658     MSVCRT:cpu_disp.obj
 0003:0000465c       __isa_enabled              000000018001a65c     MSVCRT:cpu_disp.obj
 0003:00004660       __memset_fast_string_threshold 000000018001a660     MSVCRT:cpu_disp.obj
 0003:00004668       __memset_nt_threshold      000000018001a668     MSVCRT:cpu_disp.obj
 0003:00004670       __scrt_ucrt_dll_is_in_use  000000018001a670     MSVCRT:ucrt_stubs.obj
 0003:00005340       ?__type_info_root_node@@3U__type_info_node@@A 000000018001b340     MSVCRT:tncleanup.obj
 0003:00005350       ?_OptionsStorage@?1??__local_stdio_printf_options@@9@4_KA 000000018001b350     MSVCRT:default_local_stdio_options.obj
 0003:00005358       ?_OptionsStorage@?1??__local_stdio_scanf_options@@9@4_KA 000000018001b358     MSVCRT:default_local_stdio_options.obj
 0003:00005360       __scrt_current_native_startup_state 000000018001b360     MSVCRT:utility.obj
 0003:00005368       __scrt_native_startup_lock 000000018001b368     MSVCRT:utility.obj
 0003:000053a8       __scrt_debugger_hook_flag  000000018001b3a8     MSVCRT:utility_desktop.obj
 0003:000053b0       __castguard_check_failure_user_handled_fptr 000000018001b3b0     MSVCRT:guard_support.obj
 0003:000053b8       __avx10_version            000000018001b3b8     MSVCRT:cpu_disp.obj
 0003:000053bc       __favor                    000000018001b3bc     MSVCRT:cpu_disp.obj
 0003:000053c0       ?_OptionsStorage@?1??__local_stdio_printf_options@@9@9 000000018001b3c0     <common>
 0003:000053c8       __dyn_tls_init_callback    000000018001b3c8     <common>

 entry point at        0001:00010ce4

 Static symbols

 0000:00000000       .debug$S                   0000000180000000     DemuxTwoOutput_sfun.exp
 0000:00000000       _volmd                     0000000180000000     DemuxTwoOutput_sfun.obj
 0000:00000000       _volmd                     0000000180000000     DemuxTwoOutput_sfun_registry.obj
 0000:00000000       _volmd                     0000000180000000     c2_DemuxTwoOutput.obj
 0000:00000000       .debug$S                   0000000180000000     ucrt:api-ms-win-crt-heap-l1-1-0.dll
 0000:00000000       .debug$S                   0000000180000000     ucrt:api-ms-win-crt-heap-l1-1-0.dll
 0000:00000000       .debug$S                   0000000180000000     ucrt:api-ms-win-crt-runtime-l1-1-0.dll
 0000:00000000       .debug$S                   0000000180000000     ucrt:api-ms-win-crt-runtime-l1-1-0.dll
 0000:00000000       .debug$S                   0000000180000000     ucrt:api-ms-win-crt-runtime-l1-1-0.dll
 0000:00000000       .debug$S                   0000000180000000     ucrt:api-ms-win-crt-runtime-l1-1-0.dll
 0000:00000000       .debug$S                   0000000180000000     ucrt:api-ms-win-crt-runtime-l1-1-0.dll
 0000:00000000       .debug$S                   0000000180000000     ucrt:api-ms-win-crt-runtime-l1-1-0.dll
 0000:00000000       .debug$S                   0000000180000000     ucrt:api-ms-win-crt-runtime-l1-1-0.dll
 0000:00000000       .debug$S                   0000000180000000     ucrt:api-ms-win-crt-runtime-l1-1-0.dll
 0000:00000000       .debug$S                   0000000180000000     ucrt:api-ms-win-crt-runtime-l1-1-0.dll
 0000:00000000       .debug$S                   0000000180000000     ucrt:api-ms-win-crt-runtime-l1-1-0.dll
 0000:00000000       .debug$S                   0000000180000000     ucrt:api-ms-win-crt-runtime-l1-1-0.dll
 0000:00000000       .debug$S                   0000000180000000     ucrt:api-ms-win-crt-runtime-l1-1-0.dll
 0000:00000000       .debug$S                   0000000180000000     ucrt:api-ms-win-crt-stdio-l1-1-0.dll
 0000:00000000       .debug$S                   0000000180000000     ucrt:api-ms-win-crt-string-l1-1-0.dll
 0000:00000000       .debug$S                   0000000180000000     ucrt:api-ms-win-crt-string-l1-1-0.dll
 0000:00000000       .debug$S                   0000000180000000     ucrt:api-ms-win-crt-string-l1-1-0.dll
 0000:00000000       .debug$S                   0000000180000000     ucrt:api-ms-win-crt-time-l1-1-0.dll
 0000:00000000       .debug$S                   0000000180000000     ucrt:api-ms-win-crt-time-l1-1-0.dll
 0000:00000000       .debug$S                   0000000180000000     kernel32:KERNEL32.dll
 0000:00000000       .debug$S                   0000000180000000     kernel32:KERNEL32.dll
 0000:00000000       .debug$S                   0000000180000000     kernel32:KERNEL32.dll
 0000:00000000       .debug$S                   0000000180000000     kernel32:KERNEL32.dll
 0000:00000000       .debug$S                   0000000180000000     kernel32:KERNEL32.dll
 0000:00000000       .debug$S                   0000000180000000     kernel32:KERNEL32.dll
 0000:00000000       .debug$S                   0000000180000000     kernel32:KERNEL32.dll
 0000:00000000       .debug$S                   0000000180000000     kernel32:KERNEL32.dll
 0000:00000000       .debug$S                   0000000180000000     kernel32:KERNEL32.dll
 0000:00000000       .debug$S                   0000000180000000     kernel32:KERNEL32.dll
 0000:00000000       .debug$S                   0000000180000000     kernel32:KERNEL32.dll
 0000:00000000       .debug$S                   0000000180000000     kernel32:KERNEL32.dll
 0000:00000000       .debug$S                   0000000180000000     kernel32:KERNEL32.dll
 0000:00000000       .debug$S                   0000000180000000     kernel32:KERNEL32.dll
 0000:00000000       .debug$S                   0000000180000000     kernel32:KERNEL32.dll
 0000:00000000       .debug$S                   0000000180000000     kernel32:KERNEL32.dll
 0000:00000000       .debug$S                   0000000180000000     kernel32:KERNEL32.dll
 0000:00000000       .debug$S                   0000000180000000     libcovrt:libcovrt.dll
 0000:00000000       .debug$S                   0000000180000000     libcovrt:libcovrt.dll
 0000:00000000       .debug$S                   0000000180000000     libcovrt:libcovrt.dll
 0000:00000000       .debug$S                   0000000180000000     libcovrt:libcovrt.dll
 0000:00000000       .debug$S                   0000000180000000     libcovrt:libcovrt.dll
 0000:00000000       .debug$S                   0000000180000000     libcovrt:libcovrt.dll
 0000:00000000       .debug$S                   0000000180000000     libcovrt:libcovrt.dll
 0000:00000000       .debug$S                   0000000180000000     libcovrt:libcovrt.dll
 0000:00000000       .debug$S                   0000000180000000     libcovrt:libcovrt.dll
 0000:00000000       .debug$S                   0000000180000000     libcovrt:libcovrt.dll
 0000:00000000       .debug$S                   0000000180000000     libcovrt:libcovrt.dll
 0000:00000000       .debug$S                   0000000180000000     libcovrt:libcovrt.dll
 0000:00000000       .debug$S                   0000000180000000     libcovrt:libcovrt.dll
 0000:00000000       .debug$S                   0000000180000000     libcovrt:libcovrt.dll
 0000:00000000       .debug$S                   0000000180000000     libcovrt:libcovrt.dll
 0000:00000000       .debug$S                   0000000180000000     libcovrt:libcovrt.dll
 0000:00000000       .debug$S                   0000000180000000     libcovrt:libcovrt.dll
 0000:00000000       .debug$S                   0000000180000000     libcovrt:libcovrt.dll
 0000:00000000       .debug$S                   0000000180000000     libmex:libmex.dll
 0000:00000000       .debug$S                   0000000180000000     libmex:libmex.dll
 0000:00000000       .debug$S                   0000000180000000     libmex:libmex.dll
 0000:00000000       .debug$S                   0000000180000000     libmex:libmex.dll
 0000:00000000       .debug$S                   0000000180000000     libmex:libmex.dll
 0000:00000000       .debug$S                   0000000180000000     libmex:libmex.dll
 0000:00000000       .debug$S                   0000000180000000     libmex:libmex.dll
 0000:00000000       .debug$S                   0000000180000000     libmwmathutil:libmwmathutil.dll
 0000:00000000       .debug$S                   0000000180000000     libmwmathutil:libmwmathutil.dll
 0000:00000000       .debug$S                   0000000180000000     libmwmathutil:libmwmathutil.dll
 0000:00000000       .debug$S                   0000000180000000     libmwmathutil:libmwmathutil.dll
 0000:00000000       .debug$S                   0000000180000000     libmwmathutil:libmwmathutil.dll
 0000:00000000       .debug$S                   0000000180000000     libmwmathutil:libmwmathutil.dll
 0000:00000000       .debug$S                   0000000180000000     libmx:libmx.dll
 0000:00000000       .debug$S                   0000000180000000     libmx:libmx.dll
 0000:00000000       .debug$S                   0000000180000000     libmx:libmx.dll
 0000:00000000       .debug$S                   0000000180000000     libmx:libmx.dll
 0000:00000000       .debug$S                   0000000180000000     libmx:libmx.dll
 0000:00000000       .debug$S                   0000000180000000     libmx:libmx.dll
 0000:00000000       .debug$S                   0000000180000000     libmx:libmx.dll
 0000:00000000       .debug$S                   0000000180000000     libmx:libmx.dll
 0000:00000000       .debug$S                   0000000180000000     libmx:libmx.dll
 0000:00000000       .debug$S                   0000000180000000     libmx:libmx.dll
 0000:00000000       .debug$S                   0000000180000000     libmx:libmx.dll
 0000:00000000       .debug$S                   0000000180000000     libmx:libmx.dll
 0000:00000000       .debug$S                   0000000180000000     libmx:libmx.dll
 0000:00000000       .debug$S                   0000000180000000     libmx:libmx.dll
 0000:00000000       .debug$S                   0000000180000000     libmx:libmx.dll
 0000:00000000       .debug$S                   0000000180000000     libmx:libmx.dll
 0000:00000000       .debug$S                   0000000180000000     libmx:libmx.dll
 0000:00000000       .debug$S                   0000000180000000     libmx:libmx.dll
 0000:00000000       .debug$S                   0000000180000000     libmx:libmx.dll
 0000:00000000       .debug$S                   0000000180000000     libmx:libmx.dll
 0000:00000000       .debug$S                   0000000180000000     libut:libut.dll
 0000:00000000       .debug$S                   0000000180000000     libut:libut.dll
 0000:00000000       .debug$S                   0000000180000000     sf_runtime:sf_runtime.dll
 0000:00000000       .debug$S                   0000000180000000     sf_runtime:sf_runtime.dll
 0000:00000000       .debug$S                   0000000180000000     sf_runtime:sf_runtime.dll
 0000:00000000       .debug$S                   0000000180000000     sf_runtime:sf_runtime.dll
 0000:00000000       .debug$S                   0000000180000000     sf_runtime:sf_runtime.dll
 0000:00000000       .debug$S                   0000000180000000     sf_runtime:sf_runtime.dll
 0000:00000000       .debug$S                   0000000180000000     sf_runtime:sf_runtime.dll
 0000:00000000       .debug$S                   0000000180000000     sf_runtime:sf_runtime.dll
 0000:00000000       .debug$S                   0000000180000000     sf_runtime:sf_runtime.dll
 0000:00000000       .debug$S                   0000000180000000     sf_runtime:sf_runtime.dll
 0000:00000000       .debug$S                   0000000180000000     sf_runtime:sf_runtime.dll
 0000:00000000       .debug$S                   0000000180000000     sf_runtime:sf_runtime.dll
 0000:00000000       .debug$S                   0000000180000000     sf_runtime:sf_runtime.dll
 0000:00000000       .debug$S                   0000000180000000     sf_runtime:sf_runtime.dll
 0000:00000000       .debug$S                   0000000180000000     sf_runtime:sf_runtime.dll
 0000:00000000       .debug$S                   0000000180000000     sf_runtime:sf_runtime.dll
 0000:00000000       .debug$S                   0000000180000000     sf_runtime:sf_runtime.dll
 0000:00000000       .debug$S                   0000000180000000     sf_runtime:sf_runtime.dll
 0000:00000000       .debug$S                   0000000180000000     sf_runtime:sf_runtime.dll
 0000:00000000       .debug$S                   0000000180000000     sf_runtime:sf_runtime.dll
 0000:00000000       .debug$S                   0000000180000000     sf_runtime:sf_runtime.dll
 0000:00000000       .debug$S                   0000000180000000     sf_runtime:sf_runtime.dll
 0000:00000000       .debug$S                   0000000180000000     sf_runtime:sf_runtime.dll
 0000:00000000       .debug$S                   0000000180000000     sf_runtime:sf_runtime.dll
 0000:00000000       .debug$S                   0000000180000000     sf_runtime:sf_runtime.dll
 0000:00000000       .debug$S                   0000000180000000     sf_runtime:sf_runtime.dll
 0000:00000000       .debug$S                   0000000180000000     sf_runtime:sf_runtime.dll
 0000:00000000       .debug$S                   0000000180000000     sf_runtime:sf_runtime.dll
 0000:00000000       .debug$S                   0000000180000000     sf_runtime:sf_runtime.dll
 0000:00000000       .debug$S                   0000000180000000     sf_runtime:sf_runtime.dll
 0000:00000000       .debug$S                   0000000180000000     sf_runtime:sf_runtime.dll
 0000:00000000       .debug$S                   0000000180000000     sf_runtime:sf_runtime.dll
 0000:00000000       .debug$S                   0000000180000000     sf_runtime:sf_runtime.dll
 0000:00000000       .debug$S                   0000000180000000     sf_runtime:sf_runtime.dll
 0000:00000000       .debug$S                   0000000180000000     sf_runtime:sf_runtime.dll
 0000:00000000       .debug$S                   0000000180000000     sf_runtime:sf_runtime.dll
 0000:00000000       .debug$S                   0000000180000000     sf_runtime:sf_runtime.dll
 0000:00000000       _volmd                     0000000180000000     MSVCRT:cpu_disp.obj
 0002:fffed000       __guard_ehcont_?dllmain_dispatch@@YAHQEAUHINSTANCE__@@KQEAX@Z 0000000180000000     MSVCRT:dll_dllmain.obj
 0002:fffed000       __guard_fids_?dllmain_dispatch@@YAHQEAUHINSTANCE__@@KQEAX@Z 0000000180000000     MSVCRT:dll_dllmain.obj
 0000:00000000       _volmd                     0000000180000000     MSVCRT:gs_report.obj
 0000:00000000       _volmd                     0000000180000000     MSVCRT:gs_report.obj
 0000:00000000       _volmd                     0000000180000000     MSVCRT:gs_report.obj
 0002:fffed000       __guard_fids__             0000000180000000     MSVCRT:guard_support.obj
 0002:fffed000       __guard_fids__             0000000180000000     MSVCRT:guard_support.obj
 0002:fffed000       __guard_fids__guard_icall_checks_enforced 0000000180000000     MSVCRT:guard_support.obj
 0000:00000000       _volmd                     0000000180000000     MSVCRT:guard_support.obj
 0000:00000000       _volmd                     0000000180000000     MSVCRT:guard_support.obj
 0000:00000000       _volmd                     0000000180000000     MSVCRT:guard_support.obj
 0000:00000000       _volmd                     0000000180000000     MSVCRT:guard_support.obj
 0000:00000000       _volmd                     0000000180000000     MSVCRT:guard_support.obj
 0000:00000000       _volmd                     0000000180000000     MSVCRT:guard_support.obj
 0000:00000000       _volmd                     0000000180000000     MSVCRT:guard_support.obj
 0000:00000000       _volmd                     0000000180000000     MSVCRT:guard_support.obj
 0000:00000000       _volmd                     0000000180000000     MSVCRT:guard_support.obj
 0000:00000000       _volmd                     0000000180000000     MSVCRT:guard_support.obj
 0002:fffed000       __guard_ehcont___scrt_is_nonwritable_in_current_image 0000000180000000     MSVCRT:utility.obj
 0000:00000000       _volmd                     0000000180000000     MSVCRT:utility.obj
 0000:00000000       _volmd                     0000000180000000     MSVCRT:utility.obj
 0000:00000000       _volmd                     0000000180000000     MSVCRT:utility.obj
 0002:fffed000       __guard_fids___scrt_set_unhandled_exception_filter 0000000180000000     MSVCRT:utility_desktop.obj
 0000:00000000       _volmd                     0000000180000000     MSVCRT:utility_desktop.obj
 0002:fffed000       __guard_fids__             0000000180000000     vcruntime:softmemtag.obj
 0000:00000000       .debug$S                   0000000180000000     vcruntime:VCRUNTIME140.dll
 0000:00000000       .debug$S                   0000000180000000     vcruntime:VCRUNTIME140.dll
 0000:00000000       .debug$S                   0000000180000000     vcruntime:VCRUNTIME140.dll
 0000:00000000       .debug$S                   0000000180000000     vcruntime:VCRUNTIME140.dll
 0000:00000000       .debug$S                   0000000180000000     vcruntime:VCRUNTIME140.dll
 0000:00000000       .debug$S                   0000000180000000     vcruntime:VCRUNTIME140.dll
 0000:00000010       _volmd                     0000000180000010     DemuxTwoOutput_sfun.obj
 0000:00000010       _volmd                     0000000180000010     DemuxTwoOutput_sfun_registry.obj
 0000:00000010       _volmd                     0000000180000010     c2_DemuxTwoOutput.obj
 0000:00000020       _volmd                     0000000180000020     DemuxTwoOutput_sfun.obj
 0000:00000020       _volmd                     0000000180000020     DemuxTwoOutput_sfun_registry.obj
 0000:00000020       _volmd                     0000000180000020     c2_DemuxTwoOutput.obj
 0000:00000030       _volmd                     0000000180000030     DemuxTwoOutput_sfun.obj
 0000:00000030       _volmd                     0000000180000030     DemuxTwoOutput_sfun_registry.obj
 0000:00000030       _volmd                     0000000180000030     c2_DemuxTwoOutput.obj
 0000:00000040       _volmd                     0000000180000040     DemuxTwoOutput_sfun.obj
 0000:00000040       _volmd                     0000000180000040     DemuxTwoOutput_sfun_registry.obj
 0000:00000040       _volmd                     0000000180000040     c2_DemuxTwoOutput.obj
 0000:00000050       _volmd                     0000000180000050     DemuxTwoOutput_sfun.obj
 0000:00000050       _volmd                     0000000180000050     DemuxTwoOutput_sfun_registry.obj
 0000:00000060       _volmd                     0000000180000060     DemuxTwoOutput_sfun_registry.obj
 0000:00000070       _volmd                     0000000180000070     DemuxTwoOutput_sfun_registry.obj
 0000:00000080       _volmd                     0000000180000080     DemuxTwoOutput_sfun_registry.obj
 0000:00000090       _volmd                     0000000180000090     DemuxTwoOutput_sfun_registry.obj
 0000:000000a0       _volmd                     00000001800000a0     DemuxTwoOutput_sfun_registry.obj
 0000:000000b0       _volmd                     00000001800000b0     DemuxTwoOutput_sfun_registry.obj
 0000:000000c0       _volmd                     00000001800000c0     DemuxTwoOutput_sfun_registry.obj
 0000:000000d0       _volmd                     00000001800000d0     DemuxTwoOutput_sfun_registry.obj
 0000:000000e0       _volmd                     00000001800000e0     DemuxTwoOutput_sfun_registry.obj
 0000:000000f0       _volmd                     00000001800000f0     DemuxTwoOutput_sfun_registry.obj
 0000:00000100       _volmd                     0000000180000100     DemuxTwoOutput_sfun_registry.obj
 0001:00000f90       localtime                  0000000180001f90 f   c2_DemuxTwoOutput.obj
 0001:00000fb0       time                       0000000180001fb0 f   c2_DemuxTwoOutput.obj
 0001:000011a0       initialize_c2_DemuxTwoOutput 00000001800021a0 f   c2_DemuxTwoOutput.obj
 0001:00001230       initialize_params_c2_DemuxTwoOutput 0000000180002230 f   c2_DemuxTwoOutput.obj
 0001:00001240       mdl_start_c2_DemuxTwoOutput 0000000180002240 f   c2_DemuxTwoOutput.obj
 0001:00001270       mdl_terminate_c2_DemuxTwoOutput 0000000180002270 f   c2_DemuxTwoOutput.obj
 0001:00001280       mdl_setup_runtime_resources_c2_DemuxTwoOutput 0000000180002280 f   c2_DemuxTwoOutput.obj
 0001:00001600       mdl_cleanup_runtime_resources_c2_DemuxTwoOutput 0000000180002600 f   c2_DemuxTwoOutput.obj
 0001:00001630       enable_c2_DemuxTwoOutput   0000000180002630 f   c2_DemuxTwoOutput.obj
 0001:00001660       disable_c2_DemuxTwoOutput  0000000180002660 f   c2_DemuxTwoOutput.obj
 0001:00001690       sf_gateway_c2_DemuxTwoOutput 0000000180002690 f   c2_DemuxTwoOutput.obj
 0001:00002440       get_sim_state_c2_DemuxTwoOutput 0000000180003440 f   c2_DemuxTwoOutput.obj
 0001:00002a20       set_sim_state_c2_DemuxTwoOutput 0000000180003a20 f   c2_DemuxTwoOutput.obj
 0001:00002d40       c2_now                     0000000180003d40 f   c2_DemuxTwoOutput.obj
 0001:00003590       c2_mod                     0000000180004590 f   c2_DemuxTwoOutput.obj
 0001:000036e0       c2_rand                    00000001800046e0 f   c2_DemuxTwoOutput.obj
 0001:000043d0       c2_emlrt_marshallIn        00000001800053d0 f   c2_DemuxTwoOutput.obj
 0001:00004440       c2_b_emlrt_marshallIn      0000000180005440 f   c2_DemuxTwoOutput.obj
 0001:000044d0       c2_c_emlrt_marshallIn      00000001800054d0 f   c2_DemuxTwoOutput.obj
 0001:00004540       c2_d_emlrt_marshallIn      0000000180005540 f   c2_DemuxTwoOutput.obj
 0001:00004600       c2_e_emlrt_marshallIn      0000000180005600 f   c2_DemuxTwoOutput.obj
 0001:00004680       c2_f_emlrt_marshallIn      0000000180005680 f   c2_DemuxTwoOutput.obj
 0001:000047a0       c2_g_emlrt_marshallIn      00000001800057a0 f   c2_DemuxTwoOutput.obj
 0001:00004820       c2_h_emlrt_marshallIn      0000000180005820 f   c2_DemuxTwoOutput.obj
 0001:00004910       init_dsm_address_info      0000000180005910 f   c2_DemuxTwoOutput.obj
 0001:00004920       init_simulink_io_address   0000000180005920 f   c2_DemuxTwoOutput.obj
 0001:00004bd0       sf_get_sim_state_info_c2_DemuxTwoOutput 0000000180005bd0 f   c2_DemuxTwoOutput.obj
 0001:00004c90       sf_opaque_initialize_c2_DemuxTwoOutput 0000000180005c90 f   c2_DemuxTwoOutput.obj
 0001:00004cc0       sf_opaque_enable_c2_DemuxTwoOutput 0000000180005cc0 f   c2_DemuxTwoOutput.obj
 0001:00004ce0       sf_opaque_disable_c2_DemuxTwoOutput 0000000180005ce0 f   c2_DemuxTwoOutput.obj
 0001:00004d00       sf_opaque_gateway_c2_DemuxTwoOutput 0000000180005d00 f   c2_DemuxTwoOutput.obj
 0001:00004d20       sf_opaque_get_sim_state_c2_DemuxTwoOutput 0000000180005d20 f   c2_DemuxTwoOutput.obj
 0001:00004d50       sf_opaque_set_sim_state_c2_DemuxTwoOutput 0000000180005d50 f   c2_DemuxTwoOutput.obj
 0001:00004d90       sf_opaque_cleanup_runtime_resources_c2_DemuxTwoOutput 0000000180005d90 f   c2_DemuxTwoOutput.obj
 0001:00004e30       sf_opaque_mdl_start_c2_DemuxTwoOutput 0000000180005e30 f   c2_DemuxTwoOutput.obj
 0001:00004e70       sf_opaque_mdl_terminate_c2_DemuxTwoOutput 0000000180005e70 f   c2_DemuxTwoOutput.obj
 0001:00004e90       mdlProcessParameters_c2_DemuxTwoOutput 0000000180005e90 f   c2_DemuxTwoOutput.obj
 0001:000050e0       mdlSetWorkWidths_c2_DemuxTwoOutput 00000001800060e0 f   c2_DemuxTwoOutput.obj
 0001:00005170       mdlRTW_c2_DemuxTwoOutput   0000000180006170 f   c2_DemuxTwoOutput.obj
 0001:000051b0       mdlSetupRuntimeResources_c2_DemuxTwoOutput 00000001800061b0 f   c2_DemuxTwoOutput.obj
 0001:00007cd0       $LN197                     0000000180008cd0     DemuxTwoOutput_sfun_registry.obj
 0001:00008b34       $LN22                      0000000180009b34     DemuxTwoOutput_sfun_registry.obj
 0001:00009234       $LN26                      000000018000a234     DemuxTwoOutput_sfun_registry.obj
 0001:00009914       $LN24                      000000018000a914     DemuxTwoOutput_sfun_registry.obj
 0001:0000a64c       $LN30                      000000018000b64c     DemuxTwoOutput_sfun_registry.obj
 0001:0000dc60       ProcessMexSfunctionCmdLineCall 000000018000ec60 f   DemuxTwoOutput_sfun_registry.obj
 0001:0000df20       mdlSetWorkWidths           000000018000ef20 f   DemuxTwoOutput_sfun_registry.obj
 0001:0000df70       mdlProcessParameters       000000018000ef70 f   DemuxTwoOutput_sfun_registry.obj
 0001:0000dfa0       mdl_setup_runtime_resources_processing 000000018000efa0 f   DemuxTwoOutput_sfun_registry.obj
 0001:0000e000       mdlSetupRuntimeResources   000000018000f000 f   DemuxTwoOutput_sfun_registry.obj
 0001:0000e030       mdl_cleanup_runtime_resources_processing 000000018000f030 f   DemuxTwoOutput_sfun_registry.obj
 0001:0000e0f0       mdlCleanupRuntimeResources 000000018000f0f0 f   DemuxTwoOutput_sfun_registry.obj
 0001:0000e120       mdl_start_processing       000000018000f120 f   DemuxTwoOutput_sfun_registry.obj
 0001:0000e160       mdlStart                   000000018000f160 f   DemuxTwoOutput_sfun_registry.obj
 0001:0000e190       mdl_terminate_processing   000000018000f190 f   DemuxTwoOutput_sfun_registry.obj
 0001:0000e1d0       mdlTerminate               000000018000f1d0 f   DemuxTwoOutput_sfun_registry.obj
 0001:0000e200       mdlInitializeSizes         000000018000f200 f   DemuxTwoOutput_sfun_registry.obj
 0001:0000e230       mdlInitializeSampleTimes   000000018000f230 f   DemuxTwoOutput_sfun_registry.obj
 0001:0000e260       mdl_outputs_continuous_legacy 000000018000f260 f   DemuxTwoOutput_sfun_registry.obj
 0001:0000e370       mdl_outputs_processing     000000018000f370 f   DemuxTwoOutput_sfun_registry.obj
 0001:0000e4d0       mdl_zeroCrossings_processing 000000018000f4d0 f   DemuxTwoOutput_sfun_registry.obj
 0001:0000e510       mdlZeroCrossings           000000018000f510 f   DemuxTwoOutput_sfun_registry.obj
 0001:0000e540       mdl_derivatives_processing 000000018000f540 f   DemuxTwoOutput_sfun_registry.obj
 0001:0000e590       mdlDerivatives             000000018000f590 f   DemuxTwoOutput_sfun_registry.obj
 0001:0000e5c0       mdl_initialize_conditions_processing 000000018000f5c0 f   DemuxTwoOutput_sfun_registry.obj
 0001:0000e610       mdlInitializeConditions    000000018000f610 f   DemuxTwoOutput_sfun_registry.obj
 0001:0000e640       mdl_ext_mode_exec_processing 000000018000f640 f   DemuxTwoOutput_sfun_registry.obj
 0001:0000e690       mdlExtModeExec             000000018000f690 f   DemuxTwoOutput_sfun_registry.obj
 0001:0000e6c0       mdlRTW                     000000018000f6c0 f   DemuxTwoOutput_sfun_registry.obj
 0001:0000e700       mdl_enable_processing      000000018000f700 f   DemuxTwoOutput_sfun_registry.obj
 0001:0000e740       mdlEnable                  000000018000f740 f   DemuxTwoOutput_sfun_registry.obj
 0001:0000e770       mdl_disable_processing     000000018000f770 f   DemuxTwoOutput_sfun_registry.obj
 0001:0000e7b0       mdlDisable                 000000018000f7b0 f   DemuxTwoOutput_sfun_registry.obj
 0001:0000e7e0       mdlOutputs                 000000018000f7e0 f   DemuxTwoOutput_sfun_registry.obj
 0001:0000e810       mdl_update_processing      000000018000f810 f   DemuxTwoOutput_sfun_registry.obj
 0001:0000e860       mdlUpdate                  000000018000f860 f   DemuxTwoOutput_sfun_registry.obj
 0001:0000ea50       mdlGetTimeOfNextVarHit     000000018000fa50 f   DemuxTwoOutput_sfun_registry.obj
 0001:0000eaa0       _RegNumInputPortsCB        000000018000faa0 f   DemuxTwoOutput_sfun_registry.obj
 0001:0000eb20       _RegNumOutputPortsCB       000000018000fb20 f   DemuxTwoOutput_sfun_registry.obj
 0001:0000eba0       _CreateSimStruct           000000018000fba0 f   DemuxTwoOutput_sfun_registry.obj
 0001:0000edd0       _ProcessMexSfunctionCmdLineCall 000000018000fdd0 f   DemuxTwoOutput_sfun_registry.obj
 0001:0000f850       ReportIndexOutOfBoundsError 0000000180010850 f   DemuxTwoOutput_sfun_registry.obj
 0001:00010814       capture_current_context    0000000180011814 f   MSVCRT:gs_report.obj
 0001:00010884       capture_previous_context   0000000180011884 f   MSVCRT:gs_report.obj
 0001:00010980       $$000000                   0000000180011980     MSVCRT:amdsecgs.obj
 0001:000109b0       ?dllmain_crt_dispatch@@YAHQEAUHINSTANCE__@@KQEAX@Z 00000001800119b0 f   MSVCRT:dll_dllmain.obj
 0001:00010a00       ?dllmain_crt_process_attach@@YAHQEAUHINSTANCE__@@QEAX@Z 0000000180011a00 f   MSVCRT:dll_dllmain.obj
 0001:00010b18       ?dllmain_crt_process_detach@@YAH_N@Z 0000000180011b18 f   MSVCRT:dll_dllmain.obj
 0001:00010b98       ?dllmain_dispatch@@YAHQEAUHINSTANCE__@@KQEAX@Z 0000000180011b98 f   MSVCRT:dll_dllmain.obj
 0001:00010cc0       ?dllmain_raw@@YAHQEAUHINSTANCE__@@KQEAX@Z 0000000180011cc0 f   MSVCRT:dll_dllmain.obj
 0001:00010d24       __get_entropy              0000000180011d24 f   MSVCRT:gs_support.obj
 0001:00010eb4       ?find_pe_section@@YAPEAU_IMAGE_SECTION_HEADER@@QEAE_K@Z 0000000180011eb4 f   MSVCRT:utility.obj
 0001:00010f08       ?is_potentially_valid_image_base@@YA_NQEAX@Z 0000000180011f08 f   MSVCRT:utility.obj
 0001:00011634       __castguard_check_failure_os_handled_wrapper 0000000180012634 f   MSVCRT:guard_support.obj
 0001:00011684       __castguard_check_failure_user_handled_wrapper 0000000180012684 f   MSVCRT:guard_support.obj
 0001:000116a0       __castguard_compat_check   00000001800126a0 f   MSVCRT:guard_support.obj
 0001:000117dc       __castguard_slow_path_compat_check 00000001800127dc f   MSVCRT:guard_support.obj
 0001:00011c20       $$000000                   0000000180012c20     MSVCRT:guard_dispatch.obj
 0001:00011c40       $$000000                   0000000180012c40     MSVCRT:guard_xfg_dispatch.obj
 0001:00011c56       ?fin$0@?0??dllmain_crt_process_attach@@YAHQEAUHINSTANCE__@@QEAX@Z@4HA 0000000180012c56 f   MSVCRT:dll_dllmain.obj
 0001:00011c6d       ?fin$0@?0??dllmain_crt_process_detach@@YAH_N@Z@4HA 0000000180012c6d f   MSVCRT:dll_dllmain.obj
 0001:00011c86       ?fin$1@?0??dllmain_crt_process_detach@@YAH_N@Z@4HA 0000000180012c86 f   MSVCRT:dll_dllmain.obj
 0001:00011c9a       ?filt$0@?0??dllmain_dispatch@@YAHQEAUHINSTANCE__@@KQEAX@Z@4HA 0000000180012c9a f   MSVCRT:dll_dllmain.obj
 0001:00011cd0       __scrt_is_nonwritable_in_current_image$filt$0 0000000180012cd0 f   MSVCRT:utility.obj
 0002:00000570       ?c2_postfixPredicateTree@?1??mdl_setup_runtime_resources_c2_DemuxTwoOutput@@9@9 0000000180013570     c2_DemuxTwoOutput.obj
 0002:0000057c       ?c2_decisionTxtEndIdx@?1??mdl_setup_runtime_resources_c2_DemuxTwoOutput@@9@9 000000018001357c     c2_DemuxTwoOutput.obj
 0002:00000580       ?c2_condTxtEndIdx@?1??mdl_setup_runtime_resources_c2_DemuxTwoOutput@@9@9 0000000180013580     c2_DemuxTwoOutput.obj
 0002:00000588       ?c2_condTxtStartIdx@?1??mdl_setup_runtime_resources_c2_DemuxTwoOutput@@9@9 0000000180013588     c2_DemuxTwoOutput.obj
 0002:00000590       ?c2_decisionTxtStartIdx@?1??mdl_setup_runtime_resources_c2_DemuxTwoOutput@@9@9 0000000180013590     c2_DemuxTwoOutput.obj
 0002:000006d0       GS_ExceptionPointers       00000001800136d0     MSVCRT:gs_report.obj
 0002:00000da0       $unwind$load_DemuxTwoOutput_optimization_info 0000000180013da0     DemuxTwoOutput_sfun.obj
 0002:00000da8       $unwind$unload_DemuxTwoOutput_optimization_info 0000000180013da8     DemuxTwoOutput_sfun.obj
 0002:00000db0       $unwind$sf_DemuxTwoOutput_method_dispatcher 0000000180013db0     DemuxTwoOutput_sfun.obj
 0002:00000db8       $unwind$sf_DemuxTwoOutput_process_check_sum_call 0000000180013db8     DemuxTwoOutput_sfun.obj
 0002:00000dc8       $unwind$sf_DemuxTwoOutput_get_eml_resolved_functions_info 0000000180013dc8     DemuxTwoOutput_sfun.obj
 0002:00000dd8       $unwind$sf_DemuxTwoOutput_third_party_uses_info 0000000180013dd8     DemuxTwoOutput_sfun.obj
 0002:00000de8       $unwind$sf_DemuxTwoOutput_jit_fallback_info 0000000180013de8     DemuxTwoOutput_sfun.obj
 0002:00000df8       $unwind$sf_DemuxTwoOutput_get_post_codegen_info 0000000180013df8     DemuxTwoOutput_sfun.obj
 0002:00000e08       $unwind$sf_DemuxTwoOutput_updateBuildInfo_args_info 0000000180013e08     DemuxTwoOutput_sfun.obj
 0002:00000e18       $unwind$localtime          0000000180013e18     c2_DemuxTwoOutput.obj
 0002:00000e20       $unwind$time               0000000180013e20     c2_DemuxTwoOutput.obj
 0002:00000e28       $unwind$sf_c2_DemuxTwoOutput_get_eml_resolved_functions_info 0000000180013e28     c2_DemuxTwoOutput.obj
 0002:00000e30       $unwind$sf_c2_DemuxTwoOutput_get_check_sum 0000000180013e30     c2_DemuxTwoOutput.obj
 0002:00000e38       $unwind$c2_DemuxTwoOutput_method_dispatcher 0000000180013e38     c2_DemuxTwoOutput.obj
 0002:00000e40       $unwind$initialize_c2_DemuxTwoOutput 0000000180013e40     c2_DemuxTwoOutput.obj
 0002:00000e48       $unwind$mdl_start_c2_DemuxTwoOutput 0000000180013e48     c2_DemuxTwoOutput.obj
 0002:00000e50       $unwind$mdl_setup_runtime_resources_c2_DemuxTwoOutput 0000000180013e50     c2_DemuxTwoOutput.obj
 0002:00000e58       $unwind$mdl_cleanup_runtime_resources_c2_DemuxTwoOutput 0000000180013e58     c2_DemuxTwoOutput.obj
 0002:00000e60       $unwind$enable_c2_DemuxTwoOutput 0000000180013e60     c2_DemuxTwoOutput.obj
 0002:00000e68       $unwind$disable_c2_DemuxTwoOutput 0000000180013e68     c2_DemuxTwoOutput.obj
 0002:00000e70       $unwind$sf_gateway_c2_DemuxTwoOutput 0000000180013e70     c2_DemuxTwoOutput.obj
 0002:00000e78       $unwind$get_sim_state_c2_DemuxTwoOutput 0000000180013e78     c2_DemuxTwoOutput.obj
 0002:00000e80       $unwind$set_sim_state_c2_DemuxTwoOutput 0000000180013e80     c2_DemuxTwoOutput.obj
 0002:00000e90       $unwind$c2_now             0000000180013e90     c2_DemuxTwoOutput.obj
 0002:00000ea4       $unwind$c2_mod             0000000180013ea4     c2_DemuxTwoOutput.obj
 0002:00000eac       $unwind$c2_rand            0000000180013eac     c2_DemuxTwoOutput.obj
 0002:00000eb4       $unwind$c2_emlrt_marshallIn 0000000180013eb4     c2_DemuxTwoOutput.obj
 0002:00000ebc       $unwind$c2_b_emlrt_marshallIn 0000000180013ebc     c2_DemuxTwoOutput.obj
 0002:00000ec4       $unwind$c2_c_emlrt_marshallIn 0000000180013ec4     c2_DemuxTwoOutput.obj
 0002:00000ecc       $unwind$c2_d_emlrt_marshallIn 0000000180013ecc     c2_DemuxTwoOutput.obj
 0002:00000ed4       $unwind$c2_e_emlrt_marshallIn 0000000180013ed4     c2_DemuxTwoOutput.obj
 0002:00000edc       $unwind$c2_f_emlrt_marshallIn 0000000180013edc     c2_DemuxTwoOutput.obj
 0002:00000eec       $unwind$c2_g_emlrt_marshallIn 0000000180013eec     c2_DemuxTwoOutput.obj
 0002:00000ef4       $unwind$c2_h_emlrt_marshallIn 0000000180013ef4     c2_DemuxTwoOutput.obj
 0002:00000efc       $unwind$init_simulink_io_address 0000000180013efc     c2_DemuxTwoOutput.obj
 0002:00000f04       $unwind$sf_c2_DemuxTwoOutput_third_party_uses_info 0000000180013f04     c2_DemuxTwoOutput.obj
 0002:00000f0c       $unwind$sf_c2_DemuxTwoOutput_jit_fallback_info 0000000180013f0c     c2_DemuxTwoOutput.obj
 0002:00000f1c       $unwind$sf_c2_DemuxTwoOutput_updateBuildInfo_args_info 0000000180013f1c     c2_DemuxTwoOutput.obj
 0002:00000f24       $unwind$sf_get_sim_state_info_c2_DemuxTwoOutput 0000000180013f24     c2_DemuxTwoOutput.obj
 0002:00000f2c       $unwind$sf_opaque_initialize_c2_DemuxTwoOutput 0000000180013f2c     c2_DemuxTwoOutput.obj
 0002:00000f34       $unwind$sf_opaque_enable_c2_DemuxTwoOutput 0000000180013f34     c2_DemuxTwoOutput.obj
 0002:00000f3c       $unwind$sf_opaque_disable_c2_DemuxTwoOutput 0000000180013f3c     c2_DemuxTwoOutput.obj
 0002:00000f44       $unwind$sf_opaque_gateway_c2_DemuxTwoOutput 0000000180013f44     c2_DemuxTwoOutput.obj
 0002:00000f4c       $unwind$sf_opaque_get_sim_state_c2_DemuxTwoOutput 0000000180013f4c     c2_DemuxTwoOutput.obj
 0002:00000f54       $unwind$sf_opaque_set_sim_state_c2_DemuxTwoOutput 0000000180013f54     c2_DemuxTwoOutput.obj
 0002:00000f5c       $unwind$sf_opaque_cleanup_runtime_resources_c2_DemuxTwoOutput 0000000180013f5c     c2_DemuxTwoOutput.obj
 0002:00000f64       $unwind$sf_opaque_mdl_start_c2_DemuxTwoOutput 0000000180013f64     c2_DemuxTwoOutput.obj
 0002:00000f6c       $unwind$sf_opaque_mdl_terminate_c2_DemuxTwoOutput 0000000180013f6c     c2_DemuxTwoOutput.obj
 0002:00000f74       $unwind$mdlProcessParameters_c2_DemuxTwoOutput 0000000180013f74     c2_DemuxTwoOutput.obj
 0002:00000f7c       $unwind$sf_c2_DemuxTwoOutput_get_post_codegen_info 0000000180013f7c     c2_DemuxTwoOutput.obj
 0002:00000f8c       $unwind$mdlSetWorkWidths_c2_DemuxTwoOutput 0000000180013f8c     c2_DemuxTwoOutput.obj
 0002:00000f94       $unwind$mdlRTW_c2_DemuxTwoOutput 0000000180013f94     c2_DemuxTwoOutput.obj
 0002:00000f9c       $unwind$mdlSetupRuntimeResources_c2_DemuxTwoOutput 0000000180013f9c     c2_DemuxTwoOutput.obj
 0002:00000fa4       $unwind$_vsnprintf_l       0000000180013fa4     DemuxTwoOutput_sfun_registry.obj
 0002:00000fac       $unwind$_vsprintf_l        0000000180013fac     DemuxTwoOutput_sfun_registry.obj
 0002:00000fb4       $unwind$sprintf            0000000180013fb4     DemuxTwoOutput_sfun_registry.obj
 0002:00000fbc       $unwind$mexFunction        0000000180013fbc     DemuxTwoOutput_sfun_registry.obj
 0002:00000fcc       $unwind$_ssSetInputPortDirectFeedThroughFcn 0000000180013fcc     DemuxTwoOutput_sfun_registry.obj
 0002:00000fdc       $unwind$_ssSetRWorkValueFcn 0000000180013fdc     DemuxTwoOutput_sfun_registry.obj
 0002:00000fe4       $unwind$_ssGetRWorkValueFcn 0000000180013fe4     DemuxTwoOutput_sfun_registry.obj
 0002:00000fec       $unwind$_ssSetIWorkValueFcn 0000000180013fec     DemuxTwoOutput_sfun_registry.obj
 0002:00000ff4       $unwind$_ssGetIWorkValueFcn 0000000180013ff4     DemuxTwoOutput_sfun_registry.obj
 0002:00000ffc       $unwind$_ssSetPWorkValueFcn 0000000180013ffc     DemuxTwoOutput_sfun_registry.obj
 0002:00001004       $unwind$_ssGetPWorkValueFcn 0000000180014004     DemuxTwoOutput_sfun_registry.obj
 0002:0000100c       $unwind$_ssGetInputPortSignalFcn 000000018001400c     DemuxTwoOutput_sfun_registry.obj
 0002:0000101c       $unwind$_ssGetInputPortBufferDstPortFcn 000000018001401c     DemuxTwoOutput_sfun_registry.obj
 0002:00001024       $unwind$_ssGetInputPortSignalPtrsFcn 0000000180014024     DemuxTwoOutput_sfun_registry.obj
 0002:00001034       $unwind$ssGetParameterTuningCompliance 0000000180014034     DemuxTwoOutput_sfun_registry.obj
 0002:0000103c       $unwind$_ssReadInputStringFcn 000000018001403c     DemuxTwoOutput_sfun_registry.obj
 0002:00001044       $unwind$ssGetDTypeIdFromMxArray 0000000180014044     DemuxTwoOutput_sfun_registry.obj
 0002:0000104c       $unwind$ssWriteRTWMx2dMatParam 000000018001404c     DemuxTwoOutput_sfun_registry.obj
 0002:00001054       $unwind$ssWriteRTWMxVectParam 0000000180014054     DemuxTwoOutput_sfun_registry.obj
 0002:0000105c       $unwind$ssWriteRTWParameters 000000018001405c     DemuxTwoOutput_sfun_registry.obj
 0002:00001064       $unwind$ssWriteRTWParamSettings 0000000180014064     DemuxTwoOutput_sfun_registry.obj
 0002:0000106c       $unwind$ssWriteRTWStr      000000018001406c     DemuxTwoOutput_sfun_registry.obj
 0002:00001074       $unwind$ssWriteRTWWorkVect 0000000180014074     DemuxTwoOutput_sfun_registry.obj
 0002:00001088       $unwind$ssWarning          0000000180014088     DemuxTwoOutput_sfun_registry.obj
 0002:0000109c       $unwind$ssGetRootSS        000000018001409c     DemuxTwoOutput_sfun_registry.obj
 0002:000010a4       $unwind$ssGetParentSS      00000001800140a4     DemuxTwoOutput_sfun_registry.obj
 0002:000010ac       $unwind$ssWriteRTWNameValuePair 00000001800140ac     DemuxTwoOutput_sfun_registry.obj
 0002:000010b4       $unwind$_ssSetInputPortMatrixDimensions 00000001800140b4     DemuxTwoOutput_sfun_registry.obj
 0002:000010c0       $unwind$_ssSetOutputPortMatrixDimensions 00000001800140c0     DemuxTwoOutput_sfun_registry.obj
 0002:000010cc       $unwind$_ssSetInputPortVectorDimension 00000001800140cc     DemuxTwoOutput_sfun_registry.obj
 0002:000010d8       $unwind$_ssSetOutputPortVectorDimension 00000001800140d8     DemuxTwoOutput_sfun_registry.obj
 0002:000010e4       $unwind$ssIsRunTimeParamTunable 00000001800140e4     DemuxTwoOutput_sfun_registry.obj
 0002:000010ec       $unwind$ssGetSFuncBlockHandle 00000001800140ec     DemuxTwoOutput_sfun_registry.obj
 0002:000010f4       $unwind$_ssGetCallSystemNumFcnCallDestinations 00000001800140f4     DemuxTwoOutput_sfun_registry.obj
 0002:000010fc       $unwind$_ssGetCurrentInputPortWidth 00000001800140fc     DemuxTwoOutput_sfun_registry.obj
 0002:00001104       $unwind$_ssGetCurrentOutputPortWidth 0000000180014104     DemuxTwoOutput_sfun_registry.obj
 0002:0000110c       $unwind$ssGetIsZeroCrossControlDisabled 000000018001410c     DemuxTwoOutput_sfun_registry.obj
 0002:00001114       $unwind$ssSetIsInputPortUsedForContZcSignal 0000000180014114     DemuxTwoOutput_sfun_registry.obj
 0002:0000111c       $unwind$ssSetZcSignalIsZcElementDisc 000000018001411c     DemuxTwoOutput_sfun_registry.obj
 0002:0000112c       $unwind$ssSetZcSignalName  000000018001412c     DemuxTwoOutput_sfun_registry.obj
 0002:00001134       $unwind$ssSetZcSignalWidth 0000000180014134     DemuxTwoOutput_sfun_registry.obj
 0002:0000113c       $unwind$ssSetZcSignalZcEventType 000000018001413c     DemuxTwoOutput_sfun_registry.obj
 0002:00001144       $unwind$ssSetZcSignalType  0000000180014144     DemuxTwoOutput_sfun_registry.obj
 0002:0000114c       $unwind$ssSetZcSignalZcTol 000000018001414c     DemuxTwoOutput_sfun_registry.obj
 0002:00001154       $unwind$ssSetZcSignalNeedsEventNotification 0000000180014154     DemuxTwoOutput_sfun_registry.obj
 0002:0000115c       $unwind$ssCreateAndAddZcSignalInfo 000000018001415c     DemuxTwoOutput_sfun_registry.obj
 0002:00001164       $unwind$ssCloneAndAddZcSignalInfo 0000000180014164     DemuxTwoOutput_sfun_registry.obj
 0002:0000116c       $unwind$ssGetNumZcSignals  000000018001416c     DemuxTwoOutput_sfun_registry.obj
 0002:00001174       $unwind$ssGetZcSignalVector 0000000180014174     DemuxTwoOutput_sfun_registry.obj
 0002:0000117c       $unwind$ssGetZcSignalName  000000018001417c     DemuxTwoOutput_sfun_registry.obj
 0002:00001184       $unwind$ssGetZcSignalWidth 0000000180014184     DemuxTwoOutput_sfun_registry.obj
 0002:0000118c       $unwind$ssGetZcSignalZcEventType 000000018001418c     DemuxTwoOutput_sfun_registry.obj
 0002:00001194       $unwind$ssGetZcSignalZcEvents 0000000180014194     DemuxTwoOutput_sfun_registry.obj
 0002:0000119c       $unwind$ssGetZcSignalType  000000018001419c     DemuxTwoOutput_sfun_registry.obj
 0002:000011a4       $unwind$ssGetZcSignalZcTol 00000001800141a4     DemuxTwoOutput_sfun_registry.obj
 0002:000011ac       $unwind$ssGetZcSignalNeedsEventNotification 00000001800141ac     DemuxTwoOutput_sfun_registry.obj
 0002:000011b4       $unwind$ssGetZcSignalIsZcElementDisc 00000001800141b4     DemuxTwoOutput_sfun_registry.obj
 0002:000011c4       $unwind$ssGetIsInputPortElementContinuous 00000001800141c4     DemuxTwoOutput_sfun_registry.obj
 0002:000011d4       $unwind$_ssGetAbsTol       00000001800141d4     DemuxTwoOutput_sfun_registry.obj
 0002:000011dc       $unwind$_ssSetInputPortReusableFcn 00000001800141dc     DemuxTwoOutput_sfun_registry.obj
 0002:000011e4       $unwind$_ssSetOutputPortReusableFcn 00000001800141e4     DemuxTwoOutput_sfun_registry.obj
 0002:000011ec       $unwind$_ssSetSymbolicDimsSupport 00000001800141ec     DemuxTwoOutput_sfun_registry.obj
 0002:000011f4       $unwind$_ssRegisterSymbolicDimsExpr 00000001800141f4     DemuxTwoOutput_sfun_registry.obj
 0002:000011fc       $unwind$_ssRegisterSymbolicDimsMATLABExpr 00000001800141fc     DemuxTwoOutput_sfun_registry.obj
 0002:00001204       $unwind$_ssRegisterSymbolicDims 0000000180014204     DemuxTwoOutput_sfun_registry.obj
 0002:0000120c       $unwind$_ssRegisterSymbolicDimsString 000000018001420c     DemuxTwoOutput_sfun_registry.obj
 0002:00001214       $unwind$_ssRegisterSymbolicDimsIntValue 0000000180014214     DemuxTwoOutput_sfun_registry.obj
 0002:0000121c       $unwind$_ssRegisterSymbolicEqualRelation 000000018001421c     DemuxTwoOutput_sfun_registry.obj
 0002:00001224       $unwind$_ssRegisterSymbolicEqualValue 0000000180014224     DemuxTwoOutput_sfun_registry.obj
 0002:0000122c       $unwind$_ssAmendLeadingSymbolicDims 000000018001422c     DemuxTwoOutput_sfun_registry.obj
 0002:00001234       $unwind$_ssAmendTrailingSymbolicDims 0000000180014234     DemuxTwoOutput_sfun_registry.obj
 0002:0000123c       $unwind$_ssRegisterSymbolicDimsPlus 000000018001423c     DemuxTwoOutput_sfun_registry.obj
 0002:00001244       $unwind$_ssRegisterSymbolicDimsMinus 0000000180014244     DemuxTwoOutput_sfun_registry.obj
 0002:0000124c       $unwind$_ssRegisterSymbolicDimsMultiply 000000018001424c     DemuxTwoOutput_sfun_registry.obj
 0002:00001254       $unwind$_ssRegisterSymbolicDimsDivide 0000000180014254     DemuxTwoOutput_sfun_registry.obj
 0002:0000125c       $unwind$_ssGetNumSymbolicDims 000000018001425c     DemuxTwoOutput_sfun_registry.obj
 0002:00001264       $unwind$_ssGetSymbolicDim  0000000180014264     DemuxTwoOutput_sfun_registry.obj
 0002:0000126c       $unwind$_ssSetInputPortSymbolicDimsId 000000018001426c     DemuxTwoOutput_sfun_registry.obj
 0002:00001274       $unwind$_ssGetCompInputPortSymbolicDimsId 0000000180014274     DemuxTwoOutput_sfun_registry.obj
 0002:0000127c       $unwind$_ssSetCompInputPortSymbolicDimsId 000000018001427c     DemuxTwoOutput_sfun_registry.obj
 0002:00001284       $unwind$_ssSetOutputPortSymbolicDimsId 0000000180014284     DemuxTwoOutput_sfun_registry.obj
 0002:0000128c       $unwind$_ssGetCompOutputPortSymbolicDimsId 000000018001428c     DemuxTwoOutput_sfun_registry.obj
 0002:00001294       $unwind$_ssSetCompOutputPortSymbolicDimsId 0000000180014294     DemuxTwoOutput_sfun_registry.obj
 0002:0000129c       $unwind$_ssGetDWorkSymbolicDimsId 000000018001429c     DemuxTwoOutput_sfun_registry.obj
 0002:000012a4       $unwind$_ssSetDWorkSymbolicDimsId 00000001800142a4     DemuxTwoOutput_sfun_registry.obj
 0002:000012ac       $unwind$_ssGetCompDWorkSymbolicDimsId 00000001800142ac     DemuxTwoOutput_sfun_registry.obj
 0002:000012b4       $unwind$_ssSetCompDWorkSymbolicDimsId 00000001800142b4     DemuxTwoOutput_sfun_registry.obj
 0002:000012bc       $unwind$_ssCreateSLCGStringBuffer 00000001800142bc     DemuxTwoOutput_sfun_registry.obj
 0002:000012c4       $unwind$_ssAddToSLCGStringBuffer 00000001800142c4     DemuxTwoOutput_sfun_registry.obj
 0002:000012cc       $unwind$_ssGetPointerContainedData 00000001800142cc     DemuxTwoOutput_sfun_registry.obj
 0002:000012d4       $unwind$_ssGetPointerContainedDataWidth 00000001800142d4     DemuxTwoOutput_sfun_registry.obj
 0002:000012dc       $unwind$_ssRegisterDynamicArrayDataTypeFcn 00000001800142dc     DemuxTwoOutput_sfun_registry.obj
 0002:000012e4       $unwind$_ssGetDynamicArrayContainedDataCurrentWidthFcn 00000001800142e4     DemuxTwoOutput_sfun_registry.obj
 0002:000012ec       $unwind$_ssGetDynamicArrayContainedDataFcn 00000001800142ec     DemuxTwoOutput_sfun_registry.obj
 0002:000012f4       $unwind$_ssGetInputPortDynamicArrayDataFcn 00000001800142f4     DemuxTwoOutput_sfun_registry.obj
 0002:000012fc       $unwind$_ssGetOutputPortDynamicArrayDataFcn 00000001800142fc     DemuxTwoOutput_sfun_registry.obj
 0002:00001304       $unwind$_ssGetInputPortDynamicArrayContainedDataFcn 0000000180014304     DemuxTwoOutput_sfun_registry.obj
 0002:0000130c       $unwind$_ssGetOutputPortDynamicArrayContainedDataFcn 000000018001430c     DemuxTwoOutput_sfun_registry.obj
 0002:00001314       $unwind$_ssGetDynamicArrayDWorkContainedDataFcn 0000000180014314     DemuxTwoOutput_sfun_registry.obj
 0002:0000131c       $unwind$sf_process_check_sum_call 000000018001431c     DemuxTwoOutput_sfun_registry.obj
 0002:00001324       $unwind$sf_process_get_third_party_uses_info_call 0000000180014324     DemuxTwoOutput_sfun_registry.obj
 0002:00001334       $unwind$sf_process_get_jit_fallback_info_call 0000000180014334     DemuxTwoOutput_sfun_registry.obj
 0002:00001344       $unwind$sf_process_get_post_codegen_info_call 0000000180014344     DemuxTwoOutput_sfun_registry.obj
 0002:00001354       $unwind$sf_process_get_updateBuildInfo_args_info_call 0000000180014354     DemuxTwoOutput_sfun_registry.obj
 0002:00001364       $unwind$sf_process_get_eml_resolved_functions_info_call 0000000180014364     DemuxTwoOutput_sfun_registry.obj
 0002:00001374       $unwind$sf_mex_unlock_call 0000000180014374     DemuxTwoOutput_sfun_registry.obj
 0002:00001384       $unwind$ProcessMexSfunctionCmdLineCall 0000000180014384     DemuxTwoOutput_sfun_registry.obj
 0002:0000138c       $unwind$sf_machine_global_initializer_called 000000018001438c     DemuxTwoOutput_sfun_registry.obj
 0002:00001394       $unwind$sf_machine_global_method_dispatcher 0000000180014394     DemuxTwoOutput_sfun_registry.obj
 0002:0000139c       $unwind$sf_machine_global_terminator 000000018001439c     DemuxTwoOutput_sfun_registry.obj
 0002:000013a4       $unwind$sf_machine_global_initializer 00000001800143a4     DemuxTwoOutput_sfun_registry.obj
 0002:000013ac       $unwind$mdlGetSimState     00000001800143ac     DemuxTwoOutput_sfun_registry.obj
 0002:000013b4       $unwind$mdlSetSimState     00000001800143b4     DemuxTwoOutput_sfun_registry.obj
 0002:000013bc       $unwind$mdlSetWorkWidths   00000001800143bc     DemuxTwoOutput_sfun_registry.obj
 0002:000013c4       $unwind$mdlProcessParameters 00000001800143c4     DemuxTwoOutput_sfun_registry.obj
 0002:000013cc       $unwind$mdl_setup_runtime_resources_processing 00000001800143cc     DemuxTwoOutput_sfun_registry.obj
 0002:000013d4       $unwind$mdlSetupRuntimeResources 00000001800143d4     DemuxTwoOutput_sfun_registry.obj
 0002:000013dc       $unwind$mdl_cleanup_runtime_resources_processing 00000001800143dc     DemuxTwoOutput_sfun_registry.obj
 0002:000013e4       $unwind$mdlCleanupRuntimeResources 00000001800143e4     DemuxTwoOutput_sfun_registry.obj
 0002:000013ec       $unwind$mdl_start_processing 00000001800143ec     DemuxTwoOutput_sfun_registry.obj
 0002:000013f4       $unwind$mdlStart           00000001800143f4     DemuxTwoOutput_sfun_registry.obj
 0002:000013fc       $unwind$mdl_terminate_processing 00000001800143fc     DemuxTwoOutput_sfun_registry.obj
 0002:00001404       $unwind$mdlTerminate       0000000180014404     DemuxTwoOutput_sfun_registry.obj
 0002:0000140c       $unwind$mdlInitializeSizes 000000018001440c     DemuxTwoOutput_sfun_registry.obj
 0002:00001414       $unwind$mdlInitializeSampleTimes 0000000180014414     DemuxTwoOutput_sfun_registry.obj
 0002:0000141c       $unwind$mdl_outputs_continuous_legacy 000000018001441c     DemuxTwoOutput_sfun_registry.obj
 0002:00001424       $unwind$mdl_outputs_processing 0000000180014424     DemuxTwoOutput_sfun_registry.obj
 0002:0000142c       $unwind$mdl_zeroCrossings_processing 000000018001442c     DemuxTwoOutput_sfun_registry.obj
 0002:00001434       $unwind$mdlZeroCrossings   0000000180014434     DemuxTwoOutput_sfun_registry.obj
 0002:0000143c       $unwind$mdl_derivatives_processing 000000018001443c     DemuxTwoOutput_sfun_registry.obj
 0002:00001444       $unwind$mdlDerivatives     0000000180014444     DemuxTwoOutput_sfun_registry.obj
 0002:0000144c       $unwind$mdl_initialize_conditions_processing 000000018001444c     DemuxTwoOutput_sfun_registry.obj
 0002:00001454       $unwind$mdlInitializeConditions 0000000180014454     DemuxTwoOutput_sfun_registry.obj
 0002:0000145c       $unwind$mdl_ext_mode_exec_processing 000000018001445c     DemuxTwoOutput_sfun_registry.obj
 0002:00001464       $unwind$mdlExtModeExec     0000000180014464     DemuxTwoOutput_sfun_registry.obj
 0002:0000146c       $unwind$mdlRTW             000000018001446c     DemuxTwoOutput_sfun_registry.obj
 0002:00001474       $unwind$mdl_enable_processing 0000000180014474     DemuxTwoOutput_sfun_registry.obj
 0002:0000147c       $unwind$mdlEnable          000000018001447c     DemuxTwoOutput_sfun_registry.obj
 0002:00001484       $unwind$mdl_disable_processing 0000000180014484     DemuxTwoOutput_sfun_registry.obj
 0002:0000148c       $unwind$mdlDisable         000000018001448c     DemuxTwoOutput_sfun_registry.obj
 0002:00001494       $unwind$mdlOutputs         0000000180014494     DemuxTwoOutput_sfun_registry.obj
 0002:0000149c       $unwind$mdl_update_processing 000000018001449c     DemuxTwoOutput_sfun_registry.obj
 0002:000014a4       $unwind$mdlUpdate          00000001800144a4     DemuxTwoOutput_sfun_registry.obj
 0002:000014ac       $unwind$ProcessMexSfunctionEveryCall 00000001800144ac     DemuxTwoOutput_sfun_registry.obj
 0002:000014b4       $unwind$_RegNumInputPortsCB 00000001800144b4     DemuxTwoOutput_sfun_registry.obj
 0002:000014bc       $unwind$_RegNumOutputPortsCB 00000001800144bc     DemuxTwoOutput_sfun_registry.obj
 0002:000014c4       $unwind$_CreateSimStruct   00000001800144c4     DemuxTwoOutput_sfun_registry.obj
 0002:000014cc       $unwind$_ProcessMexSfunctionCmdLineCall 00000001800144cc     DemuxTwoOutput_sfun_registry.obj
 0002:000014dc       $unwind$ReportIndexOutOfBoundsError 00000001800144dc     DemuxTwoOutput_sfun_registry.obj
 0002:000014ec       $unwind$getBitfieldFromFloat 00000001800144ec     half_type.obj
 0002:000014f4       $unwind$getFloatFromBitfield 00000001800144f4     half_type.obj
 0002:000014fc       $unwind$getHalfFromBitfield 00000001800144fc     half_type.obj
 0002:00001504       $unwind$halfToFloat        0000000180014504     half_type.obj
 0002:0000150c       $unwind$halfToDouble       000000018001450c     half_type.obj
 0002:00001514       $unwind$floatToHalf        0000000180014514     half_type.obj
 0002:0000151c       $unwind$doubleToHalf       000000018001451c     half_type.obj
 0002:00001524       $unwind$__report_securityfailure 0000000180014524     MSVCRT:gs_report.obj
 0002:0000152c       $unwind$__report_securityfailureEx 000000018001452c     MSVCRT:gs_report.obj
 0002:00001534       $unwind$__report_rangecheckfailure 0000000180014534     MSVCRT:gs_report.obj
 0002:0000153c       $unwind$__report_gsfailure 000000018001453c     MSVCRT:gs_report.obj
 0002:00001544       $unwind$capture_current_context 0000000180014544     MSVCRT:gs_report.obj
 0002:00001550       $unwind$capture_previous_context 0000000180014550     MSVCRT:gs_report.obj
 0002:0000155c       $unwind$__raise_securityfailure 000000018001455c     MSVCRT:gs_report.obj
 0002:00001564       $unwind$__GSHandlerCheckCommon 0000000180014564     MSVCRT:gshandler.obj
 0002:0000156c       $unwind$__GSHandlerCheck   000000018001456c     MSVCRT:gshandler.obj
 0002:00001578       $xdatasym                  0000000180014578     MSVCRT:amdsecgs.obj
 0002:0000157c       $unwind$?dllmain_crt_process_attach@@YAHQEAUHINSTANCE__@@QEAX@Z 000000018001457c     MSVCRT:dll_dllmain.obj
 0002:000015b8       $unwind$?fin$0@?0??dllmain_crt_process_attach@@YAHQEAUHINSTANCE__@@QEAX@Z@4HA 00000001800145b8     MSVCRT:dll_dllmain.obj
 0002:000015c0       $unwind$?dllmain_crt_process_detach@@YAH_N@Z 00000001800145c0     MSVCRT:dll_dllmain.obj
 0002:00001614       $unwind$?fin$0@?0??dllmain_crt_process_detach@@YAH_N@Z@4HA 0000000180014614     MSVCRT:dll_dllmain.obj
 0002:0000161c       $unwind$?fin$1@?0??dllmain_crt_process_detach@@YAH_N@Z@4HA 000000018001461c     MSVCRT:dll_dllmain.obj
 0002:00001624       $unwind$?dllmain_crt_dispatch@@YAHQEAUHINSTANCE__@@KQEAX@Z 0000000180014624     MSVCRT:dll_dllmain.obj
 0002:0000162c       $unwind$?dllmain_dispatch@@YAHQEAUHINSTANCE__@@KQEAX@Z 000000018001462c     MSVCRT:dll_dllmain.obj
 0002:00001654       $unwind$?filt$0@?0??dllmain_dispatch@@YAHQEAUHINSTANCE__@@KQEAX@Z@4HA 0000000180014654     MSVCRT:dll_dllmain.obj
 0002:0000165c       $unwind$_DllMainCRTStartup 000000018001465c     MSVCRT:dll_dllmain.obj
 0002:0000166c       $unwind$__security_init_cookie 000000018001466c     MSVCRT:gs_support.obj
 0002:00001678       $unwind$__get_entropy      0000000180014678     MSVCRT:gs_support.obj
 0002:00001680       $unwind$DllMain            0000000180014680     MSVCRT:dll_dllmain_stub.obj
 0002:00001688       $unwind$__scrt_initialize_default_local_stdio_options 0000000180014688     MSVCRT:default_local_stdio_options.obj
 0002:00001690       $unwind$atexit             0000000180014690     MSVCRT:utility.obj
 0002:00001698       $unwind$_onexit            0000000180014698     MSVCRT:utility.obj
 0002:000016a0       $unwind$__scrt_is_nonwritable_in_current_image 00000001800146a0     MSVCRT:utility.obj
 0002:000016c0       $unwind$__scrt_is_nonwritable_in_current_image$filt$0 00000001800146c0     MSVCRT:utility.obj
 0002:000016c8       $unwind$__scrt_acquire_startup_lock 00000001800146c8     MSVCRT:utility.obj
 0002:000016d0       $unwind$__scrt_release_startup_lock 00000001800146d0     MSVCRT:utility.obj
 0002:000016d8       $unwind$__scrt_initialize_crt 00000001800146d8     MSVCRT:utility.obj
 0002:000016e0       $unwind$__scrt_uninitialize_crt 00000001800146e0     MSVCRT:utility.obj
 0002:000016e8       $unwind$__scrt_initialize_onexit_tables 00000001800146e8     MSVCRT:utility.obj
 0002:000016f0       $unwind$__scrt_dllmain_exception_filter 00000001800146f0     MSVCRT:utility.obj
 0002:00001704       $unwind$__scrt_dllmain_before_initialize_c 0000000180014704     MSVCRT:utility.obj
 0002:0000170c       $unwind$__scrt_dllmain_after_initialize_c 000000018001470c     MSVCRT:utility.obj
 0002:00001714       $unwind$__scrt_dllmain_uninitialize_c 0000000180014714     MSVCRT:utility.obj
 0002:0000171c       $unwind$__scrt_dllmain_uninitialize_critical 000000018001471c     MSVCRT:utility.obj
 0002:00001724       $unwind$__scrt_dllmain_crt_thread_attach 0000000180014724     MSVCRT:utility.obj
 0002:0000172c       $unwind$__scrt_dllmain_crt_thread_detach 000000018001472c     MSVCRT:utility.obj
 0002:00001734       $unwind$?configure_argv@__scrt_narrow_argv_policy@@SAHXZ 0000000180014734     MSVCRT:utility.obj
 0002:0000173c       $unwind$__scrt_get_show_window_mode 000000018001473c     MSVCRT:utility_desktop.obj
 0002:00001744       $unwind$__scrt_is_managed_app 0000000180014744     MSVCRT:utility_desktop.obj
 0002:0000174c       $unwind$__scrt_fastfail    000000018001474c     MSVCRT:utility_desktop.obj
 0002:0000175c       $unwind$__scrt_unhandled_exception_filter 000000018001475c     MSVCRT:utility_desktop.obj
 0002:00001768       $unwind$_RTC_Initialize    0000000180014768     MSVCRT:initsect.obj
 0002:00001774       $unwind$_RTC_Terminate     0000000180014774     MSVCRT:initsect.obj
 0002:00001780       $unwind$__castguard_check_failure_os_handled_wrapper 0000000180014780     MSVCRT:guard_support.obj
 0002:00001788       $unwind$__castguard_check_failure_user_handled_wrapper 0000000180014788     MSVCRT:guard_support.obj
 0002:00001790       $unwind$__castguard_check_failure_os_handled 0000000180014790     MSVCRT:guard_support.obj
 0002:00001798       $unwind$__castguard_check_failure_user_handled 0000000180014798     MSVCRT:guard_support.obj
 0002:000017a0       $unwind$__castguard_slow_path_check_os_handled 00000001800147a0     MSVCRT:guard_support.obj
 0002:000017a8       $unwind$__castguard_slow_path_check_user_handled 00000001800147a8     MSVCRT:guard_support.obj
 0002:000017b0       $unwind$__isa_available_init 00000001800147b0     MSVCRT:cpu_disp.obj
 0002:000017c8       $xdatasym                  00000001800147c8     MSVCRT:guard_dispatch.obj
 0002:000017d0       $xdatasym                  00000001800147d0     MSVCRT:guard_xfg_dispatch.obj
 0002:000017e0       .edata                     00000001800147e0     DemuxTwoOutput_sfun.exp
 0002:00001808       rgpv                       0000000180014808     DemuxTwoOutput_sfun.exp
 0002:00001810       rgszName                   0000000180014810     DemuxTwoOutput_sfun.exp
 0002:00001818       rgwOrd                     0000000180014818     DemuxTwoOutput_sfun.exp
 0002:0000181c       szName                     000000018001481c     DemuxTwoOutput_sfun.exp
 0002:00001837       $N00001                    0000000180014837     DemuxTwoOutput_sfun.exp
 0002:00001843       $N00002                    0000000180014843     DemuxTwoOutput_sfun.exp
 0002:000021e4       .idata$6                   00000001800151e4     sf_runtime:sf_runtime.dll
 0002:0000237e       .idata$6                   000000018001537e     libmx:libmx.dll
 0002:00002412       .idata$6                   0000000180015412     libmex:libmex.dll
 0002:00002434       .idata$6                   0000000180015434     libut:libut.dll
 0002:000024c0       .idata$6                   00000001800154c0     libmwmathutil:libmwmathutil.dll
 0002:0000267a       .idata$6                   000000018001567a     libcovrt:libcovrt.dll
 0002:00002814       .idata$6                   0000000180015814     kernel32:KERNEL32.dll
 0002:000028a2       .idata$6                   00000001800158a2     vcruntime:VCRUNTIME140.dll
 0002:00002a0a       .idata$6                   0000000180015a0a     ucrt:api-ms-win-crt-string-l1-1-0.dll
 0002:00002a2c       .idata$6                   0000000180015a2c     ucrt:api-ms-win-crt-time-l1-1-0.dll
 0002:00002a4c       .idata$6                   0000000180015a4c     ucrt:api-ms-win-crt-stdio-l1-1-0.dll
 0002:00002a6c       .idata$6                   0000000180015a6c     ucrt:api-ms-win-crt-heap-l1-1-0.dll
 0002:00002a8c       .idata$6                   0000000180015a8c     ucrt:api-ms-win-crt-runtime-l1-1-0.dll
 0003:00000000       $SG20998                   0000000180016000     DemuxTwoOutput_sfun.obj
 0003:00000018       $SG21003                   0000000180016018     DemuxTwoOutput_sfun.obj
 0003:00000020       $SG21006                   0000000180016020     DemuxTwoOutput_sfun.obj
 0003:00000028       $SG21011                   0000000180016028     DemuxTwoOutput_sfun.obj
 0003:00000030       $SG21037                   0000000180016030     DemuxTwoOutput_sfun.obj
 0003:00000050       $SG21040                   0000000180016050     DemuxTwoOutput_sfun.obj
 0003:00000068       $SG21065                   0000000180016068     DemuxTwoOutput_sfun.obj
 0003:00000088       $SG21068                   0000000180016088     DemuxTwoOutput_sfun.obj
 0003:000000a0       $SG21093                   00000001800160a0     DemuxTwoOutput_sfun.obj
 0003:000000b8       $SG21096                   00000001800160b8     DemuxTwoOutput_sfun.obj
 0003:000000d0       $SG21122                   00000001800160d0     DemuxTwoOutput_sfun.obj
 0003:000000e8       $SG21125                   00000001800160e8     DemuxTwoOutput_sfun.obj
 0003:00000100       $SG21150                   0000000180016100     DemuxTwoOutput_sfun.obj
 0003:00000120       $SG21153                   0000000180016120     DemuxTwoOutput_sfun.obj
 0003:00000138       $SG21172                   0000000180016138     DemuxTwoOutput_sfun.obj
 0003:00000148       $SG21173                   0000000180016148     DemuxTwoOutput_sfun.obj
 0003:00000160       $SG20938                   0000000180016160     c2_DemuxTwoOutput.obj
 0003:00000164       $SG20950                   0000000180016164     c2_DemuxTwoOutput.obj
 0003:00000168       $SG20953                   0000000180016168     c2_DemuxTwoOutput.obj
 0003:0000016c       $SG20956                   000000018001616c     c2_DemuxTwoOutput.obj
 0003:00000170       $SG20939                   0000000180016170     c2_DemuxTwoOutput.obj
 0003:000001b4       $SG20959                   00000001800161b4     c2_DemuxTwoOutput.obj
 0003:000001b8       $SG20941                   00000001800161b8     c2_DemuxTwoOutput.obj
 0003:000001d0       $SG20942                   00000001800161d0     c2_DemuxTwoOutput.obj
 0003:00000230       $SG20944                   0000000180016230     c2_DemuxTwoOutput.obj
 0003:00000240       $SG20945                   0000000180016240     c2_DemuxTwoOutput.obj
 0003:00000258       $SG20947                   0000000180016258     c2_DemuxTwoOutput.obj
 0003:00000268       $SG20948                   0000000180016268     c2_DemuxTwoOutput.obj
 0003:00000280       $SG20951                   0000000180016280     c2_DemuxTwoOutput.obj
 0003:000002c4       $SG20962                   00000001800162c4     c2_DemuxTwoOutput.obj
 0003:000002d0       $SG20954                   00000001800162d0     c2_DemuxTwoOutput.obj
 0003:00000314       $SG20965                   0000000180016314     c2_DemuxTwoOutput.obj
 0003:00000320       $SG20957                   0000000180016320     c2_DemuxTwoOutput.obj
 0003:00000364       $SG20968                   0000000180016364     c2_DemuxTwoOutput.obj
 0003:00000370       $SG20960                   0000000180016370     c2_DemuxTwoOutput.obj
 0003:000003b4       $SG20971                   00000001800163b4     c2_DemuxTwoOutput.obj
 0003:000003c0       $SG20963                   00000001800163c0     c2_DemuxTwoOutput.obj
 0003:00000404       $SG20974                   0000000180016404     c2_DemuxTwoOutput.obj
 0003:00000410       $SG20966                   0000000180016410     c2_DemuxTwoOutput.obj
 0003:00000454       $SG20977                   0000000180016454     c2_DemuxTwoOutput.obj
 0003:00000460       $SG20969                   0000000180016460     c2_DemuxTwoOutput.obj
 0003:000004a4       $SG20980                   00000001800164a4     c2_DemuxTwoOutput.obj
 0003:000004b0       $SG20972                   00000001800164b0     c2_DemuxTwoOutput.obj
 0003:00000500       $SG20975                   0000000180016500     c2_DemuxTwoOutput.obj
 0003:00000550       $SG20978                   0000000180016550     c2_DemuxTwoOutput.obj
 0003:000005a0       $SG20981                   00000001800165a0     c2_DemuxTwoOutput.obj
 0003:000005e8       $SG20983                   00000001800165e8     c2_DemuxTwoOutput.obj
 0003:00000600       $SG20984                   0000000180016600     c2_DemuxTwoOutput.obj
 0003:00000658       $SG20986                   0000000180016658     c2_DemuxTwoOutput.obj
 0003:00000670       $SG20987                   0000000180016670     c2_DemuxTwoOutput.obj
 0003:000006c8       $SG20989                   00000001800166c8     c2_DemuxTwoOutput.obj
 0003:000006e0       $SG20990                   00000001800166e0     c2_DemuxTwoOutput.obj
 0003:00000738       $SG20992                   0000000180016738     c2_DemuxTwoOutput.obj
 0003:00000760       $SG20993                   0000000180016760     c2_DemuxTwoOutput.obj
 0003:000007c8       $SG20995                   00000001800167c8     c2_DemuxTwoOutput.obj
 0003:000007e0       $SG20996                   00000001800167e0     c2_DemuxTwoOutput.obj
 0003:00000840       c2_emlrtMCI                0000000180016840     c2_DemuxTwoOutput.obj
 0003:00000858       c2_b_emlrtMCI              0000000180016858     c2_DemuxTwoOutput.obj
 0003:00000870       c2_emlrtRSI                0000000180016870     c2_DemuxTwoOutput.obj
 0003:00000888       c2_b_emlrtRSI              0000000180016888     c2_DemuxTwoOutput.obj
 0003:000008a0       c2_m_emlrtRSI              00000001800168a0     c2_DemuxTwoOutput.obj
 0003:000008b8       c2_n_emlrtRSI              00000001800168b8     c2_DemuxTwoOutput.obj
 0003:000008d0       c2_o_emlrtRSI              00000001800168d0     c2_DemuxTwoOutput.obj
 0003:000008e8       c2_p_emlrtRSI              00000001800168e8     c2_DemuxTwoOutput.obj
 0003:00000900       c2_q_emlrtRSI              0000000180016900     c2_DemuxTwoOutput.obj
 0003:00000918       c2_r_emlrtRSI              0000000180016918     c2_DemuxTwoOutput.obj
 0003:00000930       c2_uv                      0000000180016930     c2_DemuxTwoOutput.obj
 0003:000012f4       $SG21227                   00000001800172f4     c2_DemuxTwoOutput.obj
 0003:000012f8       $SG21109                   00000001800172f8     c2_DemuxTwoOutput.obj
 0003:00001310       ?c2_cv@?1??sf_gateway_c2_DemuxTwoOutput@@9@9 0000000180017310     c2_DemuxTwoOutput.obj
 0003:00001328       $SG21228                   0000000180017328     c2_DemuxTwoOutput.obj
 0003:00001330       $SG21229                   0000000180017330     c2_DemuxTwoOutput.obj
 0003:00001338       $SG21230                   0000000180017338     c2_DemuxTwoOutput.obj
 0003:00001344       $SG21231                   0000000180017344     c2_DemuxTwoOutput.obj
 0003:0000134c       $SG21277                   000000018001734c     c2_DemuxTwoOutput.obj
 0003:00001350       $SG21278                   0000000180017350     c2_DemuxTwoOutput.obj
 0003:00001354       $SG21281                   0000000180017354     c2_DemuxTwoOutput.obj
 0003:00001358       $SG21282                   0000000180017358     c2_DemuxTwoOutput.obj
 0003:0000135c       $SG21285                   000000018001735c     c2_DemuxTwoOutput.obj
 0003:00001360       $SG21286                   0000000180017360     c2_DemuxTwoOutput.obj
 0003:00001364       $SG21289                   0000000180017364     c2_DemuxTwoOutput.obj
 0003:00001368       $SG21290                   0000000180017368     c2_DemuxTwoOutput.obj
 0003:0000136c       $SG21293                   000000018001736c     c2_DemuxTwoOutput.obj
 0003:00001370       $SG21294                   0000000180017370     c2_DemuxTwoOutput.obj
 0003:00001374       $SG21297                   0000000180017374     c2_DemuxTwoOutput.obj
 0003:00001378       $SG21298                   0000000180017378     c2_DemuxTwoOutput.obj
 0003:0000137c       $SG21313                   000000018001737c     c2_DemuxTwoOutput.obj
 0003:00001380       $SG21314                   0000000180017380     c2_DemuxTwoOutput.obj
 0003:00001384       $SG21315                   0000000180017384     c2_DemuxTwoOutput.obj
 0003:0000138c       $SG21316                   000000018001738c     c2_DemuxTwoOutput.obj
 0003:00001394       $SG21317                   0000000180017394     c2_DemuxTwoOutput.obj
 0003:0000139c       $SG21318                   000000018001739c     c2_DemuxTwoOutput.obj
 0003:000013a4       $SG21319                   00000001800173a4     c2_DemuxTwoOutput.obj
 0003:000013b0       ?c2_cv@?1??c2_rand@@9@9    00000001800173b0     c2_DemuxTwoOutput.obj
 0003:000013d8       $SG21558                   00000001800173d8     c2_DemuxTwoOutput.obj
 0003:000013dc       $SG21559                   00000001800173dc     c2_DemuxTwoOutput.obj
 0003:000013e0       $SG21560                   00000001800173e0     c2_DemuxTwoOutput.obj
 0003:000013e8       $SG21561                   00000001800173e8     c2_DemuxTwoOutput.obj
 0003:000013f4       $SG21562                   00000001800173f4     c2_DemuxTwoOutput.obj
 0003:00001400       $SG21569                   0000000180017400     c2_DemuxTwoOutput.obj
 0003:00001410       $SG21689                   0000000180017410     c2_DemuxTwoOutput.obj
 0003:00001420       $SG21691                   0000000180017420     c2_DemuxTwoOutput.obj
 0003:00001430       $SG21693                   0000000180017430     c2_DemuxTwoOutput.obj
 0003:00001448       $SG21695                   0000000180017448     c2_DemuxTwoOutput.obj
 0003:00001460       $SG21697                   0000000180017460     c2_DemuxTwoOutput.obj
 0003:00001474       $SG21698                   0000000180017474     c2_DemuxTwoOutput.obj
 0003:00001480       $SG21699                   0000000180017480     c2_DemuxTwoOutput.obj
 0003:00001488       $SG21702                   0000000180017488     c2_DemuxTwoOutput.obj
 0003:00001490       $SG21715                   0000000180017490     c2_DemuxTwoOutput.obj
 0003:000014a0       $SG21717                   00000001800174a0     c2_DemuxTwoOutput.obj
 0003:000014b0       $SG21718                   00000001800174b0     c2_DemuxTwoOutput.obj
 0003:000016f0       $SG21791                   00000001800176f0     c2_DemuxTwoOutput.obj
 0003:00001740       $SG21793                   0000000180017740     c2_DemuxTwoOutput.obj
 0003:00001790       $SG21795                   0000000180017790     c2_DemuxTwoOutput.obj
 0003:000017e0       $SG21797                   00000001800177e0     c2_DemuxTwoOutput.obj
 0003:00001830       $SG21799                   0000000180017830     c2_DemuxTwoOutput.obj
 0003:00001880       $SG21801                   0000000180017880     c2_DemuxTwoOutput.obj
 0003:000018d0       $SG21803                   00000001800178d0     c2_DemuxTwoOutput.obj
 0003:00001920       $SG21805                   0000000180017920     c2_DemuxTwoOutput.obj
 0003:00001970       $SG21807                   0000000180017970     c2_DemuxTwoOutput.obj
 0003:000019c0       $SG21809                   00000001800179c0     c2_DemuxTwoOutput.obj
 0003:00001a10       $SG21811                   0000000180017a10     c2_DemuxTwoOutput.obj
 0003:00001a60       $SG21813                   0000000180017a60     c2_DemuxTwoOutput.obj
 0003:00001ab0       $SG21815                   0000000180017ab0     c2_DemuxTwoOutput.obj
 0003:00001b00       $SG21817                   0000000180017b00     c2_DemuxTwoOutput.obj
 0003:00001b50       $SG21819                   0000000180017b50     c2_DemuxTwoOutput.obj
 0003:00001ba0       $SG21821                   0000000180017ba0     c2_DemuxTwoOutput.obj
 0003:00001bf0       $SG21823                   0000000180017bf0     c2_DemuxTwoOutput.obj
 0003:00001c40       $SG21825                   0000000180017c40     c2_DemuxTwoOutput.obj
 0003:00001c90       $SG21827                   0000000180017c90     c2_DemuxTwoOutput.obj
 0003:00001ce0       $SG21829                   0000000180017ce0     c2_DemuxTwoOutput.obj
 0003:00001d30       $SG21831                   0000000180017d30     c2_DemuxTwoOutput.obj
 0003:00001d80       $SG21833                   0000000180017d80     c2_DemuxTwoOutput.obj
 0003:00001dd0       $SG21835                   0000000180017dd0     c2_DemuxTwoOutput.obj
 0003:00001e20       $SG21837                   0000000180017e20     c2_DemuxTwoOutput.obj
 0003:00001e70       $SG21839                   0000000180017e70     c2_DemuxTwoOutput.obj
 0003:00001e80       $SG21850                   0000000180017e80     c2_DemuxTwoOutput.obj
 0003:00001e90       $SG21851                   0000000180017e90     c2_DemuxTwoOutput.obj
 0003:00001ea8       $SG21873                   0000000180017ea8     c2_DemuxTwoOutput.obj
 0003:00001ee0       $SG21886                   0000000180017ee0     c2_DemuxTwoOutput.obj
 0003:00001f58       $SG20906                   0000000180017f58     DemuxTwoOutput_sfun_registry.obj
 0003:00001f78       $SG20908                   0000000180017f78     DemuxTwoOutput_sfun_registry.obj
 0003:00001f88       $SG20936                   0000000180017f88     DemuxTwoOutput_sfun_registry.obj
 0003:00001fa0       $SG20938                   0000000180017fa0     DemuxTwoOutput_sfun_registry.obj
 0003:00001fb0       $SG20966                   0000000180017fb0     DemuxTwoOutput_sfun_registry.obj
 0003:00001fc8       $SG20968                   0000000180017fc8     DemuxTwoOutput_sfun_registry.obj
 0003:00001fd8       $SG20996                   0000000180017fd8     DemuxTwoOutput_sfun_registry.obj
 0003:00001ff8       $SG20998                   0000000180017ff8     DemuxTwoOutput_sfun_registry.obj
 0003:00002008       $SG21026                   0000000180018008     DemuxTwoOutput_sfun_registry.obj
 0003:00002028       $SG21028                   0000000180018028     DemuxTwoOutput_sfun_registry.obj
 0003:00002038       $SG21044                   0000000180018038     DemuxTwoOutput_sfun_registry.obj
 0003:00002048       $SG21058                   0000000180018048     DemuxTwoOutput_sfun_registry.obj
 0003:00002060       $SG21078                   0000000180018060     DemuxTwoOutput_sfun_registry.obj
 0003:00002070       $SG21151                   0000000180018070     DemuxTwoOutput_sfun_registry.obj
 0003:00002078       $SG21152                   0000000180018078     DemuxTwoOutput_sfun_registry.obj
 0003:0000208c       $SG21156                   000000018001808c     DemuxTwoOutput_sfun_registry.obj
 0003:00002098       $SG21157                   0000000180018098     DemuxTwoOutput_sfun_registry.obj
 0003:000020b8       $SG21271                   00000001800180b8     DemuxTwoOutput_sfun_registry.obj
 0003:000020e0       _sfcnName                  00000001800180e0     DemuxTwoOutput_sfun_registry.obj
 0003:00002100       $SG21286                   0000000180018100     DemuxTwoOutput_sfun_registry.obj
 0003:00002178       $SG21591                   0000000180018178     DemuxTwoOutput_sfun_registry.obj
 0003:00002180       $SG21592                   0000000180018180     DemuxTwoOutput_sfun_registry.obj
 0003:00002188       $SG21604                   0000000180018188     DemuxTwoOutput_sfun_registry.obj
 0003:00002198       $SG21740                   0000000180018198     DemuxTwoOutput_sfun_registry.obj
 0003:000021d8       $SG21741                   00000001800181d8     DemuxTwoOutput_sfun_registry.obj
 0003:000021e8       $SG21742                   00000001800181e8     DemuxTwoOutput_sfun_registry.obj
 0003:000021f0       $SG21746                   00000001800181f0     DemuxTwoOutput_sfun_registry.obj
 0003:00002238       $SG21747                   0000000180018238     DemuxTwoOutput_sfun_registry.obj
 0003:00002248       $SG21748                   0000000180018248     DemuxTwoOutput_sfun_registry.obj
 0003:00002250       $SG21749                   0000000180018250     DemuxTwoOutput_sfun_registry.obj
 0003:000022a8       $SG21750                   00000001800182a8     DemuxTwoOutput_sfun_registry.obj
 0003:000022b8       $SG21751                   00000001800182b8     DemuxTwoOutput_sfun_registry.obj
 0003:000022c0       $SG21771                   00000001800182c0     DemuxTwoOutput_sfun_registry.obj
 0003:00002300       $SG21772                   0000000180018300     DemuxTwoOutput_sfun_registry.obj
 0003:00002310       $SG21773                   0000000180018310     DemuxTwoOutput_sfun_registry.obj
 0003:00002320       $SG21777                   0000000180018320     DemuxTwoOutput_sfun_registry.obj
 0003:00002368       $SG21778                   0000000180018368     DemuxTwoOutput_sfun_registry.obj
 0003:00002378       $SG21779                   0000000180018378     DemuxTwoOutput_sfun_registry.obj
 0003:00002380       $SG21780                   0000000180018380     DemuxTwoOutput_sfun_registry.obj
 0003:000023d8       $SG21781                   00000001800183d8     DemuxTwoOutput_sfun_registry.obj
 0003:000023e8       $SG21782                   00000001800183e8     DemuxTwoOutput_sfun_registry.obj
 0003:000023f0       $SG21801                   00000001800183f0     DemuxTwoOutput_sfun_registry.obj
 0003:00002440       $SG21802                   0000000180018440     DemuxTwoOutput_sfun_registry.obj
 0003:00002450       $SG21803                   0000000180018450     DemuxTwoOutput_sfun_registry.obj
 0003:00002460       $SG21812                   0000000180018460     DemuxTwoOutput_sfun_registry.obj
 0003:000024c0       $SG21813                   00000001800184c0     DemuxTwoOutput_sfun_registry.obj
 0003:000024c8       $SG21814                   00000001800184c8     DemuxTwoOutput_sfun_registry.obj
 0003:000024d0       $SG21823                   00000001800184d0     DemuxTwoOutput_sfun_registry.obj
 0003:00002530       $SG21824                   0000000180018530     DemuxTwoOutput_sfun_registry.obj
 0003:00002538       $SG21825                   0000000180018538     DemuxTwoOutput_sfun_registry.obj
 0003:00002540       $SG22131                   0000000180018540     DemuxTwoOutput_sfun_registry.obj
 0003:000025c0       $SG22134                   00000001800185c0     DemuxTwoOutput_sfun_registry.obj
 0003:00002640       $SG22139                   0000000180018640     DemuxTwoOutput_sfun_registry.obj
 0003:000026c0       $SG22147                   00000001800186c0     DemuxTwoOutput_sfun_registry.obj
 0003:00002730       $SG22420                   0000000180018730     DemuxTwoOutput_sfun_registry.obj
 0003:000027b0       $SG22425                   00000001800187b0     DemuxTwoOutput_sfun_registry.obj
 0003:00002828       $SG22749                   0000000180018828     DemuxTwoOutput_sfun_registry.obj
 0003:00002840       $SG22762                   0000000180018840     DemuxTwoOutput_sfun_registry.obj
 0003:000028b8       $SG22765                   00000001800188b8     DemuxTwoOutput_sfun_registry.obj
 0003:000028bc       $SG22817                   00000001800188bc     DemuxTwoOutput_sfun_registry.obj
 0003:000028c4       $SG22818                   00000001800188c4     DemuxTwoOutput_sfun_registry.obj
 0003:000028cc       $SG22819                   00000001800188cc     DemuxTwoOutput_sfun_registry.obj
 0003:000028e0       $SG22820                   00000001800188e0     DemuxTwoOutput_sfun_registry.obj
 0003:00002960       $SG22822                   0000000180018960     DemuxTwoOutput_sfun_registry.obj
 0003:000029dc       $SG22825                   00000001800189dc     DemuxTwoOutput_sfun_registry.obj
 0003:000029e4       $SG22828                   00000001800189e4     DemuxTwoOutput_sfun_registry.obj
 0003:000029ec       $SG22831                   00000001800189ec     DemuxTwoOutput_sfun_registry.obj
 0003:00002a00       $SG22832                   0000000180018a00     DemuxTwoOutput_sfun_registry.obj
 0003:00002a80       $SG22833                   0000000180018a80     DemuxTwoOutput_sfun_registry.obj
 0003:00002a90       $SG22835                   0000000180018a90     DemuxTwoOutput_sfun_registry.obj
 0003:00002a9c       $SG22837                   0000000180018a9c     DemuxTwoOutput_sfun_registry.obj
 0003:00002aa4       $SG22839                   0000000180018aa4     DemuxTwoOutput_sfun_registry.obj
 0003:00002ab0       $SG22841                   0000000180018ab0     DemuxTwoOutput_sfun_registry.obj
 0003:00002abc       $SG22843                   0000000180018abc     DemuxTwoOutput_sfun_registry.obj
 0003:00002ac0       $SG22846                   0000000180018ac0     DemuxTwoOutput_sfun_registry.obj
 0003:00002ba8       $SG22956                   0000000180018ba8     DemuxTwoOutput_sfun_registry.obj
 0003:00002bd8       $SG22957                   0000000180018bd8     DemuxTwoOutput_sfun_registry.obj
 0003:00002be8       $SG22958                   0000000180018be8     DemuxTwoOutput_sfun_registry.obj
 0003:00002bf0       $SG22960                   0000000180018bf0     DemuxTwoOutput_sfun_registry.obj
 0003:00002c28       $SG22961                   0000000180018c28     DemuxTwoOutput_sfun_registry.obj
 0003:00002c38       $SG22962                   0000000180018c38     DemuxTwoOutput_sfun_registry.obj
 0003:00002c40       $SG22965                   0000000180018c40     DemuxTwoOutput_sfun_registry.obj
 0003:00002c78       $SG22966                   0000000180018c78     DemuxTwoOutput_sfun_registry.obj
 0003:00002c88       $SG22967                   0000000180018c88     DemuxTwoOutput_sfun_registry.obj
 0003:00002c90       $SG22969                   0000000180018c90     DemuxTwoOutput_sfun_registry.obj
 0003:00002cc8       $SG22970                   0000000180018cc8     DemuxTwoOutput_sfun_registry.obj
 0003:00002cd8       $SG22971                   0000000180018cd8     DemuxTwoOutput_sfun_registry.obj
 0003:00002ce0       $SG22973                   0000000180018ce0     DemuxTwoOutput_sfun_registry.obj
 0003:00002d18       $SG22974                   0000000180018d18     DemuxTwoOutput_sfun_registry.obj
 0003:00002d28       $SG22975                   0000000180018d28     DemuxTwoOutput_sfun_registry.obj
 0003:00002d30       $SG22978                   0000000180018d30     DemuxTwoOutput_sfun_registry.obj
 0003:00002d38       $SG22980                   0000000180018d38     DemuxTwoOutput_sfun_registry.obj
 0003:00002d50       $SG22981                   0000000180018d50     DemuxTwoOutput_sfun_registry.obj
 0003:00002d88       $SG22982                   0000000180018d88     DemuxTwoOutput_sfun_registry.obj
 0003:00002d98       $SG22983                   0000000180018d98     DemuxTwoOutput_sfun_registry.obj
 0003:00002da0       $SG23149                   0000000180018da0     DemuxTwoOutput_sfun_registry.obj
 0003:00002dc0       $SG23150                   0000000180018dc0     DemuxTwoOutput_sfun_registry.obj
 0003:00002e50       $SG23156                   0000000180018e50     DemuxTwoOutput_sfun_registry.obj
 0003:00002e70       $SG23157                   0000000180018e70     DemuxTwoOutput_sfun_registry.obj
 0003:00002f00       $SG23163                   0000000180018f00     DemuxTwoOutput_sfun_registry.obj
 0003:00002f20       $SG23164                   0000000180018f20     DemuxTwoOutput_sfun_registry.obj
 0003:00002fb0       $SG23170                   0000000180018fb0     DemuxTwoOutput_sfun_registry.obj
 0003:00002fd0       $SG23171                   0000000180018fd0     DemuxTwoOutput_sfun_registry.obj
 0003:00003060       $SG23177                   0000000180019060     DemuxTwoOutput_sfun_registry.obj
 0003:00003080       $SG23178                   0000000180019080     DemuxTwoOutput_sfun_registry.obj
 0003:00003110       $SG23182                   0000000180019110     DemuxTwoOutput_sfun_registry.obj
 0003:00003130       $SG23183                   0000000180019130     DemuxTwoOutput_sfun_registry.obj
 0003:000031c0       $SG23187                   00000001800191c0     DemuxTwoOutput_sfun_registry.obj
 0003:000031f0       $SG23188                   00000001800191f0     DemuxTwoOutput_sfun_registry.obj
 0003:00003280       $SG23192                   0000000180019280     DemuxTwoOutput_sfun_registry.obj
 0003:000032b0       $SG23193                   00000001800192b0     DemuxTwoOutput_sfun_registry.obj
 0003:00003340       $SG23197                   0000000180019340     DemuxTwoOutput_sfun_registry.obj
 0003:00003360       $SG23198                   0000000180019360     DemuxTwoOutput_sfun_registry.obj
 0003:000033f0       $SG23202                   00000001800193f0     DemuxTwoOutput_sfun_registry.obj
 0003:00003410       $SG23203                   0000000180019410     DemuxTwoOutput_sfun_registry.obj
 0003:000034a0       $SG23207                   00000001800194a0     DemuxTwoOutput_sfun_registry.obj
 0003:000034c0       $SG23208                   00000001800194c0     DemuxTwoOutput_sfun_registry.obj
 0003:00003550       $SG23212                   0000000180019550     DemuxTwoOutput_sfun_registry.obj
 0003:00003570       $SG23213                   0000000180019570     DemuxTwoOutput_sfun_registry.obj
 0003:00003600       $SG23217                   0000000180019600     DemuxTwoOutput_sfun_registry.obj
 0003:00003620       $SG23218                   0000000180019620     DemuxTwoOutput_sfun_registry.obj
 0003:000036b0       $SG23222                   00000001800196b0     DemuxTwoOutput_sfun_registry.obj
 0003:000036d0       $SG23223                   00000001800196d0     DemuxTwoOutput_sfun_registry.obj
 0003:00003760       $SG23227                   0000000180019760     DemuxTwoOutput_sfun_registry.obj
 0003:00003780       $SG23228                   0000000180019780     DemuxTwoOutput_sfun_registry.obj
 0003:00003810       $SG23232                   0000000180019810     DemuxTwoOutput_sfun_registry.obj
 0003:00003830       $SG23233                   0000000180019830     DemuxTwoOutput_sfun_registry.obj
 0003:000038c0       $SG23237                   00000001800198c0     DemuxTwoOutput_sfun_registry.obj
 0003:000038e0       $SG23238                   00000001800198e0     DemuxTwoOutput_sfun_registry.obj
 0003:00003970       $SG23243                   0000000180019970     DemuxTwoOutput_sfun_registry.obj
 0003:00003990       $SG23244                   0000000180019990     DemuxTwoOutput_sfun_registry.obj
 0003:00003a20       $SG23249                   0000000180019a20     DemuxTwoOutput_sfun_registry.obj
 0003:00003a30       $SG23250                   0000000180019a30     DemuxTwoOutput_sfun_registry.obj
 0003:00003ac0       $SG23254                   0000000180019ac0     DemuxTwoOutput_sfun_registry.obj
 0003:00003ae0       $SG23255                   0000000180019ae0     DemuxTwoOutput_sfun_registry.obj
 0003:00003b70       $SG23259                   0000000180019b70     DemuxTwoOutput_sfun_registry.obj
 0003:00003b80       $SG23260                   0000000180019b80     DemuxTwoOutput_sfun_registry.obj
 0003:00003c10       $SG23264                   0000000180019c10     DemuxTwoOutput_sfun_registry.obj
 0003:00003c30       $SG23265                   0000000180019c30     DemuxTwoOutput_sfun_registry.obj
 0003:00003cc0       $SG23269                   0000000180019cc0     DemuxTwoOutput_sfun_registry.obj
 0003:00003ce0       $SG23270                   0000000180019ce0     DemuxTwoOutput_sfun_registry.obj
 0003:00003d70       $SG23274                   0000000180019d70     DemuxTwoOutput_sfun_registry.obj
 0003:00003d80       $SG23275                   0000000180019d80     DemuxTwoOutput_sfun_registry.obj
 0003:00003e10       $SG23279                   0000000180019e10     DemuxTwoOutput_sfun_registry.obj
 0003:00003e20       $SG23280                   0000000180019e20     DemuxTwoOutput_sfun_registry.obj
 0003:00003eb0       $SG23284                   0000000180019eb0     DemuxTwoOutput_sfun_registry.obj
 0003:00003ed0       $SG23285                   0000000180019ed0     DemuxTwoOutput_sfun_registry.obj
 0003:00003f60       $SG23289                   0000000180019f60     DemuxTwoOutput_sfun_registry.obj
 0003:00003f80       $SG23290                   0000000180019f80     DemuxTwoOutput_sfun_registry.obj
 0003:00004010       $SG23294                   000000018001a010     DemuxTwoOutput_sfun_registry.obj
 0003:00004020       $SG23295                   000000018001a020     DemuxTwoOutput_sfun_registry.obj
 0003:000040b0       $SG23303                   000000018001a0b0     DemuxTwoOutput_sfun_registry.obj
 0003:000040c0       $SG23304                   000000018001a0c0     DemuxTwoOutput_sfun_registry.obj
 0003:00004150       $SG23310                   000000018001a150     DemuxTwoOutput_sfun_registry.obj
 0003:00004160       $SG23311                   000000018001a160     DemuxTwoOutput_sfun_registry.obj
 0003:000041f0       $SG23315                   000000018001a1f0     DemuxTwoOutput_sfun_registry.obj
 0003:00004200       $SG23316                   000000018001a200     DemuxTwoOutput_sfun_registry.obj
 0003:00004290       $SG23321                   000000018001a290     DemuxTwoOutput_sfun_registry.obj
 0003:000042a0       $SG23322                   000000018001a2a0     DemuxTwoOutput_sfun_registry.obj
 0003:00004330       $SG23326                   000000018001a330     DemuxTwoOutput_sfun_registry.obj
 0003:000043b0       $SG23349                   000000018001a3b0     DemuxTwoOutput_sfun_registry.obj
 0003:000044c8       $SG23357                   000000018001a4c8     DemuxTwoOutput_sfun_registry.obj
 0003:000044d8       $SG23364                   000000018001a4d8     DemuxTwoOutput_sfun_registry.obj
 0003:000044e8       $SG23372                   000000018001a4e8     DemuxTwoOutput_sfun_registry.obj
 0003:000044f8       $SG23379                   000000018001a4f8     DemuxTwoOutput_sfun_registry.obj
 0003:00004508       $SG23387                   000000018001a508     DemuxTwoOutput_sfun_registry.obj
 0003:00004518       $SG23394                   000000018001a518     DemuxTwoOutput_sfun_registry.obj
 0003:00004528       $SG23400                   000000018001a528     DemuxTwoOutput_sfun_registry.obj
 0003:00004548       $SG23410                   000000018001a548     DemuxTwoOutput_sfun_registry.obj
 0003:00004578       $SG23411                   000000018001a578     DemuxTwoOutput_sfun_registry.obj
 0003:00004580       $SG23412                   000000018001a580     DemuxTwoOutput_sfun_registry.obj
 0003:00004588       $SG23422                   000000018001a588     DemuxTwoOutput_sfun_registry.obj
 0003:000045c0       $SG23423                   000000018001a5c0     DemuxTwoOutput_sfun_registry.obj
 0003:000045c8       $SG23424                   000000018001a5c8     DemuxTwoOutput_sfun_registry.obj
 0003:00004680       sRtwOptimizationInfoStruct 000000018001a680     DemuxTwoOutput_sfun.obj
 0003:00004688       sOptimizationInfoFlags     000000018001a688     DemuxTwoOutput_sfun.obj
 0003:00004690       _sfTime_                   000000018001a690     c2_DemuxTwoOutput.obj
 0003:00004698       $SG21108                   000000018001a698     c2_DemuxTwoOutput.obj
 0003:00004699       $SG21700                   000000018001a699     c2_DemuxTwoOutput.obj
 0003:0000469a       $SG21701                   000000018001a69a     c2_DemuxTwoOutput.obj
 0003:0000469b       $SG21841                   000000018001a69b     c2_DemuxTwoOutput.obj
 0003:000046a0       ?newstr@?1??sf_c2_DemuxTwoOutput_get_post_codegen_info@@9@9 000000018001a6a0     c2_DemuxTwoOutput.obj
 0003:00004db8       sfGlobalMdlStartCallCounts 000000018001adb8     DemuxTwoOutput_sfun_registry.obj
 0003:00004dbc       $SG22813                   000000018001adbc     DemuxTwoOutput_sfun_registry.obj
 0003:00004dbe       ?warningGuard@?1??ssGetRootSS@@9@9 000000018001adbe     DemuxTwoOutput_sfun_registry.obj
 0003:00004dbf       ?warningGuard@?1??ssGetParentSS@@9@9 000000018001adbf     DemuxTwoOutput_sfun_registry.obj
 0003:00004dc0       GS_ExceptionRecord         000000018001adc0     MSVCRT:gs_report.obj
 0003:00004e60       GS_ContextRecord           000000018001ae60     MSVCRT:gs_report.obj
 0003:00005330       ?__proc_attached@@3HA      000000018001b330     MSVCRT:dll_dllmain.obj
 0003:00005370       ?is_initialized_as_dll@@3_NA 000000018001b370     MSVCRT:utility.obj
 0003:00005371       ?module_local_atexit_table_initialized@@3_NA 000000018001b371     MSVCRT:utility.obj
 0003:00005378       ?module_local_atexit_table@@3U_onexit_table_t@@A 000000018001b378     MSVCRT:utility.obj
 0003:00005390       ?module_local_at_quick_exit_table@@3U_onexit_table_t@@A 000000018001b390     MSVCRT:utility.obj
